#SYMBOLS
Index	Identifier	Type	Flag	Data	Size	RefCount
0	__CLSWMutex0	9	0	0	4	2
1	__signed_stack_001kicken	6	1	4	4	4
2	__HTEnhancedIRSeekerV2_7qG2_dcStr_7qG2_000	6	1	8	4	6
3	__HTEnhancedIRSeekerV2_7qG2_dcSigSum_7qG2_000	6	1	12	4	8
4	__CLSRMutex0	9	0	16	4	2
5	__CLSCSMutex0	9	0	20	4	2
6	__signed_stack_001HTEnhancedIRSeekerV2	6	1	24	4	36
7	__RLSBmutex0	9	0	28	4	4
8	__RLSBmutex3	9	0	32	4	4
9	__signed_stack_003HTEnhancedIRSeekerV2	6	1	36	4	4
10	__signed_stack_002HTEnhancedIRSeekerV2	6	1	40	4	12
11	__CLSCSMutex1	9	0	44	4	4
12	__CLSWMutex2	9	0	48	4	4
13	__unsigned_stack_002HTEnhancedIRSeekerV2	5	1	52	4	4
14	__CLSWMutex3	9	0	56	4	2
15	__CLSCSMutex3	9	0	60	4	2
16	__CLSRMutex2	9	0	64	4	4
17	__CLSCSMutex2	9	0	68	4	4
18	__CLSWMutex1	9	0	72	4	4
19	__TextOutMutex	9	0	76	4	20
20	__CLSRMutex3	9	0	80	4	2
21	__unsigned_stack_001HTEnhancedIRSeekerV2	5	1	84	4	4
22	__CLSRMutex1	9	0	88	4	4
23	__DU0SetSensorLowspeed_inline_main	5	1	92	4	6
24	__D0HTEnhancedIRSeekerV2	6	1	96	4	37
25	__DU0HTEnhancedIRSeekerV2	5	1	100	4	6
26	__D0Sturen	6	1	104	4	19
27	__D0ZijLijn	6	1	108	4	35
28	__signed_stack_001richten	6	1	112	4	6
29	__D0compaswaarde	6	1	116	4	14
30	__rotate_angle1	6	1	120	4	5
31	__D0richten	6	1	124	4	19
32	__RLSBmutex2	9	0	128	4	10
33	__D0kicken	6	1	132	4	4
34	__D0main	6	1	136	4	42
35	__signed_stack_002main	6	1	140	4	20
36	__RLSBmutex1	9	0	144	4	8
37	__signed_stack_001main	6	1	148	4	26
38	__rotate_theAngle1	5	1	152	4	2
39	__D0SetSensorLowspeed_inline_main	6	1	156	4	9
40	__Wait_7qG2_ms_7qG2_000_inline_ZijLijn	5	1	160	4	4
41	__signed_stack_001Sturen	6	1	164	4	8
42	__D0SetSensorLight_inline_main	6	1	168	4	3
43	__DU0SetSensorLight_inline_main	5	1	172	4	2
44	__signed_stack_002ZijLijn	6	1	176	4	2
45	__signed_stack_001ZijLijn	6	1	180	4	10
46	__HTEnhancedIRSeekerV2_7qG2_strength_7qG2_000	4	1	184	2	7
47	__HTEnhancedIRSeekerV2_7qG2_dir_7qG2_000	4	1	186	2	10
48	__rotate_RotCount1	4	1	188	2	4
49	__main_7qG2_richting_7qG2_000	4	1	190	2	5
50	__rotate_OldRotCount1	4	1	192	2	2
51	__constVal500	4	0	194	2	1
52	__main_7qG2_afstand_7qG2_000	4	1	196	2	5
53	__Sturen_7qG2_richting_7qG2_000	4	1	198	2	4
54	__HTEnhancedIRSeekerV2_7qG2_iMax_7qG2_000	4	1	200	2	13
55	__HTEnhancedIRSeekerV2_7qG2_i_7qG2_000	4	1	202	2	11
56	__HTEnhancedIRSeekerV2_7qG2_cResp_7qG2_000	4	1	204	2	6
57	beginwaarde	4	1	206	2	2
58	__zfrichten	1	1	208	1	9
59	__zfSetSensorLight_inline_main	1	1	209	1	2
60	__zfSturen	1	1	210	1	9
61	__zfSetSensorLowspeed_inline_main	1	1	211	1	6
62	__zfZijLijn	1	1	212	1	16
63	__SetSensorMode_7qG2_port_7qG2_000_inline_SetSensorLowspeed_inline_main	1	1	213	1	6
64	__SetSensorMode_7qG2_mode_7qG2_000_inline_SetSensorLowspeed_inline_main	1	1	214	1	6
65	__ResetSensor_7qG2_port_7qG2_000_inline_SetSensorLowspeed_inline_main	1	1	215	1	3
66	__SetSensorLowspeed_7qG2_bIsPowered_7qG2_000_inline_main	1	1	216	1	6
67	__SetSensorType_7qG2_port_7qG2_000_inline_SetSensorLowspeed_inline_main	1	1	217	1	6
68	__SetSensorType_7qG2_type_7qG2_000_inline_SetSensorLowspeed_inline_main	1	1	218	1	6
69	__SetSensorType_7qG2_type_7qG2_000_inline_SetSensorLight_inline_main	1	1	219	1	2
70	__SetSensorMode_7qG2_port_7qG2_000_inline_SetSensorLight_inline_main	1	1	220	1	2
71	__SetSensorMode_7qG2_mode_7qG2_000_inline_SetSensorLight_inline_main	1	1	221	1	2
72	__SetSensorLight_7qG2_port_7qG2_000_inline_main	1	1	222	1	4
73	__SetSensorLight_7qG2_bActive_7qG2_000_inline_main	1	1	223	1	2
74	__SetSensorType_7qG2_port_7qG2_000_inline_SetSensorLight_inline_main	1	1	224	1	2
75	__SetSensorLowspeed_7qG2_port_7qG2_000_inline_main	1	1	225	1	15
76	__HTEnhancedIRSeekerV2_7qG2_fSuccess_7qG2_000	1	1	226	1	2
77	__compaswaarde_return	1	1	227	1	9
78	__kicken_return	1	1	228	1	3
79	__HTEnhancedIRSeekerV2_7qG2_port_7qG2_000	1	1	229	1	3
80	__HTEnhancedIRSeekerV2_return	1	1	230	1	3
81	__constVal67	2	0	231	1	1
82	__Sturen_return	1	1	232	1	3
83	__ZijLijn_return	1	1	233	1	3
84	____initialize_global_data_return	1	1	234	1	3
85	__constVal96	2	0	235	1	20
86	__constVal63	2	0	236	1	18
87	__richten_return	1	1	237	1	3
88	__rotate_theRS1	1	1	238	1	3
89	____ReadLSBytes1_return	1	1	239	1	4
90	__rotate_theRVP1	1	1	240	1	3
91	__rotate_theRVD1	1	1	241	1	3
92	__rotate_theRVI1	1	1	242	1	3
93	__RLSBIterations1	1	1	243	1	4
94	__rotate_theOM1	1	1	244	1	7
95	__RLSBytesCount1	1	1	245	1	12
96	__rotate_theRM1	1	1	246	1	4
97	__RLSBResult1	2	1	247	1	7
98	__rotate_rs1	1	1	248	1	2
99	__constVal3	2	0	249	1	19
100	____RotateMotor1_return	1	1	250	1	4
101	__ResetSensorPort	1	1	251	1	6
102	__ResetSensorTmp	1	1	252	1	2
103	____ResetSensorSubroutine_return	1	1	253	1	6
104	__rotate_theTurnPct1	2	1	254	1	4
105	__rotate_thePower1	2	1	255	1	4
106	__constVal32	2	0	256	1	59
107	__constVal0	2	1	257	1	73
108	__constVal1	2	0	258	1	26
109	__rotate_firstPort1	1	1	259	1	5
110	__constVal7	2	0	260	1	1
111	__RLSReadPort	1	1	261	1	5
112	__RLSBIterationsVar	1	1	262	1	4
113	__rotate_sync1	1	1	263	1	3
114	__zfmain	1	1	264	1	15
115	__rotate_power1	1	1	265	1	5
116	__zfHTEnhancedIRSeekerV2	1	1	266	1	33
117	__constVal16	2	0	267	1	1
118	__ArrHelper__HTEnhancedIRSeekerV2_98_0	1	1	268	1	25
119	__RLSBytesCountVar	1	1	269	1	10
120	__RLSBytesCount2	1	1	270	1	9
121	__RLSBIterations2	1	1	271	1	4
122	__RLSBResult2	2	1	272	1	7
123	____ReadLSBytes2_return	1	1	273	1	5
124	__rotate_theUF1	1	1	274	1	6
125	__rotate_stop1	1	1	275	1	3
126	__RLSBResultVar	2	1	276	1	9
127	____ReadLSBytesVar_return	1	1	277	1	4
128	__rotate_turnpct1	2	1	278	1	4
129	__constVal2	2	0	279	1	11
130	__CLSCSArgs2	8	0	3	4	4
131	__CLSCSArgs2.Result	2	1	280	1	4
132	__CLSCSArgs2.Port	1	1	281	1	4
133	__CLSCSArgs2.BytesReady	1	1	282	1	4
134	__CLSRArgs1	8	0	4	12	5
135	__CLSRArgs1.Result	2	1	284	1	5
136	__CLSRArgs1.Port	1	1	285	1	5
137	__CLSRArgs1.Buffer	7	0	286	4	5
138	__CLSRArgs1.Buffer.Buffer_type	1	0	0	1	0
139	__CLSRArgs1.BufferLen	1	1	288	1	5
140	__CLSWArgs2	8	0	4	12	5
141	__CLSWArgs2.Result	2	1	292	1	5
142	__CLSWArgs2.Port	1	1	293	1	5
143	__CLSWArgs2.Buffer	7	0	294	4	5
144	__CLSWArgs2.Buffer.Buffer_type	1	0	0	1	0
145	__CLSWArgs2.ReturnLen	1	1	296	1	5
146	__TextOutArgs	8	0	4	16	60
147	__TextOutArgs.Result	2	1	300	1	60
148	__TextOutArgs.Location	8	0	2	4	60
149	__TextOutArgs.Location.X	4	1	304	2	60
150	__TextOutArgs.Location.Y	4	1	306	2	60
151	__TextOutArgs.Text	7	0	308	4	60
152	__TextOutArgs.Text.Text_type	1	0	0	1	0
153	__TextOutArgs.Options	5	1	312	4	60
154	__CLSRArgs2	8	0	4	12	5
155	__CLSRArgs2.Result	2	1	316	1	5
156	__CLSRArgs2.Port	1	1	317	1	5
157	__CLSRArgs2.Buffer	7	0	318	4	5
158	__CLSRArgs2.Buffer.Buffer_type	1	0	0	1	0
159	__CLSRArgs2.BufferLen	1	1	320	1	5
160	__CLSRArgs0	8	0	4	12	5
161	__CLSRArgs0.Result	2	1	324	1	5
162	__CLSRArgs0.Port	1	1	325	1	5
163	__CLSRArgs0.Buffer	7	0	326	4	5
164	__CLSRArgs0.Buffer.Buffer_type	1	0	0	1	0
165	__CLSRArgs0.BufferLen	1	1	328	1	5
166	__CLSWArgs0	8	0	4	12	5
167	__CLSWArgs0.Result	2	1	332	1	5
168	__CLSWArgs0.Port	1	1	333	1	5
169	__CLSWArgs0.Buffer	7	0	334	4	5
170	__CLSWArgs0.Buffer.Buffer_type	1	0	0	1	0
171	__CLSWArgs0.ReturnLen	1	1	336	1	5
172	__CLSCSArgs0	8	0	3	4	4
173	__CLSCSArgs0.Result	2	1	340	1	4
174	__CLSCSArgs0.Port	1	1	341	1	4
175	__CLSCSArgs0.BytesReady	1	1	342	1	4
176	__CLSWArgs1	8	0	4	12	5
177	__CLSWArgs1.Result	2	1	344	1	5
178	__CLSWArgs1.Port	1	1	345	1	5
179	__CLSWArgs1.Buffer	7	0	346	4	5
180	__CLSWArgs1.Buffer.Buffer_type	1	0	0	1	0
181	__CLSWArgs1.ReturnLen	1	1	348	1	5
182	__CLSCSArgs1	8	0	3	4	4
183	__CLSCSArgs1.Result	2	1	352	1	4
184	__CLSCSArgs1.Port	1	1	353	1	4
185	__CLSCSArgs1.BytesReady	1	1	354	1	4
186	__strbufmain	7	0	356	4	8
187	__strbufmain.__strbufmain_type	1	0	0	1	0
188	__rotate_ports1	7	0	358	4	7
189	__rotate_ports1.__rotate_ports1_type	1	0	0	1	0
190	__RLSReadBufVar	7	0	360	4	10
191	__RLSReadBufVar.__RLSReadBufVar_type	1	0	0	1	0
192	__strbufZijLijn	7	0	362	4	2
193	__strbufZijLijn.__strbufZijLijn_type	1	0	0	1	0
194	__constStr0010	7	0	364	4	1
195	__constStr0010.__constStr0010_type	1	1	0	1	0
196	__constStr0012	7	0	366	4	1
197	__constStr0012.__constStr0012_type	1	1	0	1	0
198	__constStr0013	7	0	368	4	1
199	__constStr0013.__constStr0013_type	1	1	0	1	0
200	__constStr0011	7	0	370	4	1
201	__constStr0011.__constStr0011_type	1	1	0	1	0
202	__OUT_AC	7	0	372	4	6
203	__OUT_AC.__OUT_AC_type	1	0	0	1	0
204	__HTEnhancedIRSeekerV2_7qG2_cmdBuf_7qG2_000	7	0	374	4	5
205	__HTEnhancedIRSeekerV2_7qG2_cmdBuf_7qG2_000.__HTEnhancedIRSeekerV2_7qG2_cmdBuf_7qG2_000_type	1	0	0	1	0
206	__RLSBbufLSWrite1	7	0	376	4	5
207	__RLSBbufLSWrite1.__RLSBbufLSWrite1_type	1	0	0	1	0
208	__constStr0009	7	0	378	4	1
209	__constStr0009.__constStr0009_type	1	1	0	1	0
210	__HTEnhancedIRSeekerV2_7qG2_respBuf_7qG2_000	7	0	380	4	14
211	__HTEnhancedIRSeekerV2_7qG2_respBuf_7qG2_000.__HTEnhancedIRSeekerV2_7qG2_respBuf_7qG2_000_type	1	0	0	1	0
212	__RLSLastGoodRead1	7	0	382	4	2
213	__RLSLastGoodRead1.__RLSLastGoodRead1_type	1	0	0	1	0
214	__RLSReadBuf2	7	0	384	4	12
215	__RLSReadBuf2.__RLSReadBuf2_type	1	0	0	1	0
216	__RLSLastGoodReadVar	7	0	386	4	2
217	__RLSLastGoodReadVar.__RLSLastGoodReadVar_type	1	0	0	1	0
218	__RLSReadBuf1	7	0	388	4	12
219	__RLSReadBuf1.__RLSReadBuf1_type	1	0	0	1	0
220	__RLSLastGoodRead2	7	0	390	4	2
221	__RLSLastGoodRead2.__RLSLastGoodRead2_type	1	0	0	1	0
#SOURCES
Clump	Line	PC	Source
0	157	0	#line 157 "C:\Users\Mees\Documents\GitHub\NXT-voetbal\aanvaller.nxc"
0	158	0		subcall __initialize_global_data, ____initialize_global_data_return
0	157	2	#line 157 "C:\Users\Mees\Documents\GitHub\NXT-voetbal\aanvaller.nxc"
0	158	2	#line 158 "C:\Users\Mees\Documents\GitHub\NXT-voetbal\aanvaller.nxc"
0	159	2		set __SetSensorLowspeed_7qG2_port_7qG2_000_inline_main, 0
0	158	5	#line 158 "C:\Users\Mees\Documents\GitHub\NXT-voetbal\aanvaller.nxc"
0	159	5	#line 159 "C:\Users\Mees\Documents\GitHub\NXT-voetbal\aanvaller.nxc"
0	160	5		mov __SetSensorLowspeed_7qG2_bIsPowered_7qG2_000_inline_main, __constVal1
0	3758	7	#line 3758 "NXCDefs.h"
0	3759	7		mov __SetSensorType_7qG2_port_7qG2_000_inline_SetSensorLowspeed_inline_main, __SetSensorLowspeed_7qG2_port_7qG2_000_inline_main
0	3758	9	#line 3758 "NXCDefs.h"
0	3758	9	#line 3758 "NXCDefs.h"
0	3759	9		mov __DU0SetSensorLowspeed_inline_main, __SetSensorLowspeed_7qG2_bIsPowered_7qG2_000_inline_main
0	3758	11	#line 3758 "NXCDefs.h"
0	3759	11		tst 5, __zfSetSensorLowspeed_inline_main, __DU0SetSensorLowspeed_inline_main
0	3758	14	#line 3758 "NXCDefs.h"
0	3759	14		brtst 4, __004__NXC_Label_36, __zfSetSensorLowspeed_inline_main
0	3758	17	#line 3758 "NXCDefs.h"
0	3759	17		set __D0SetSensorLowspeed_inline_main, 11
0	3758	20	#line 3758 "NXCDefs.h"
0	3759	20		jmp __004__NXC_Label_37
0	3758	22	#line 3758 "NXCDefs.h"
0	3759	22		set __D0SetSensorLowspeed_inline_main, 10
0	3758	25	#line 3758 "NXCDefs.h"
0	3759	25		mov __SetSensorType_7qG2_type_7qG2_000_inline_SetSensorLowspeed_inline_main, __D0SetSensorLowspeed_inline_main
0	3663	27	#line 3663 "NXCDefs.h"
0	3664	27		setin __SetSensorType_7qG2_type_7qG2_000_inline_SetSensorLowspeed_inline_main, __SetSensorType_7qG2_port_7qG2_000_inline_SetSensorLowspeed_inline_main, 0
0	3663	31	#line 3663 "NXCDefs.h"
0	3759	31	#line 3759 "NXCDefs.h"
0	3759	31	#line 3759 "NXCDefs.h"
0	3760	31		mov __SetSensorMode_7qG2_port_7qG2_000_inline_SetSensorLowspeed_inline_main, __SetSensorLowspeed_7qG2_port_7qG2_000_inline_main
0	3759	33	#line 3759 "NXCDefs.h"
0	3759	33	#line 3759 "NXCDefs.h"
0	3760	33		set __SetSensorMode_7qG2_mode_7qG2_000_inline_SetSensorLowspeed_inline_main, 0
0	3759	36	#line 3759 "NXCDefs.h"
0	3676	36	#line 3676 "NXCDefs.h"
0	3677	36		setin __SetSensorMode_7qG2_mode_7qG2_000_inline_SetSensorLowspeed_inline_main, __SetSensorMode_7qG2_port_7qG2_000_inline_SetSensorLowspeed_inline_main, 1
0	3676	40	#line 3676 "NXCDefs.h"
0	3760	40	#line 3760 "NXCDefs.h"
0	3760	40	#line 3760 "NXCDefs.h"
0	3761	40		mov __ResetSensor_7qG2_port_7qG2_000_inline_SetSensorLowspeed_inline_main, __SetSensorLowspeed_7qG2_port_7qG2_000_inline_main
0	3760	42	#line 3760 "NXCDefs.h"
0	3694	42	#line 3694 "NXCDefs.h"
0	3695	42	#pragma macro 4
0	3695	42		mov __ResetSensorPort, __SetSensorLowspeed_7qG2_port_7qG2_000_inline_main
0	3695	44		subcall __ResetSensorSubroutine, ____ResetSensorSubroutine_return
0	7689	46	#line 7689 "NXCDefs.h"
0	3694	46	#line 3694 "NXCDefs.h"
0	3761	46	#line 3761 "NXCDefs.h"
0	159	46	#line 159 "C:\Users\Mees\Documents\GitHub\NXT-voetbal\aanvaller.nxc"
0	159	46	#line 159 "C:\Users\Mees\Documents\GitHub\NXT-voetbal\aanvaller.nxc"
0	160	46		set __SetSensorLowspeed_7qG2_port_7qG2_000_inline_main, 1
0	159	49	#line 159 "C:\Users\Mees\Documents\GitHub\NXT-voetbal\aanvaller.nxc"
0	160	49	#line 160 "C:\Users\Mees\Documents\GitHub\NXT-voetbal\aanvaller.nxc"
0	161	49		mov __SetSensorLowspeed_7qG2_bIsPowered_7qG2_000_inline_main, __constVal1
0	3758	51	#line 3758 "NXCDefs.h"
0	3759	51		mov __SetSensorType_7qG2_port_7qG2_000_inline_SetSensorLowspeed_inline_main, __SetSensorLowspeed_7qG2_port_7qG2_000_inline_main
0	3758	53	#line 3758 "NXCDefs.h"
0	3758	53	#line 3758 "NXCDefs.h"
0	3759	53		mov __DU0SetSensorLowspeed_inline_main, __SetSensorLowspeed_7qG2_bIsPowered_7qG2_000_inline_main
0	3758	55	#line 3758 "NXCDefs.h"
0	3759	55		tst 5, __zfSetSensorLowspeed_inline_main, __DU0SetSensorLowspeed_inline_main
0	3758	58	#line 3758 "NXCDefs.h"
0	3759	58		brtst 4, __005__NXC_Label_36, __zfSetSensorLowspeed_inline_main
0	3758	61	#line 3758 "NXCDefs.h"
0	3759	61		set __D0SetSensorLowspeed_inline_main, 11
0	3758	64	#line 3758 "NXCDefs.h"
0	3759	64		jmp __005__NXC_Label_37
0	3758	66	#line 3758 "NXCDefs.h"
0	3759	66		set __D0SetSensorLowspeed_inline_main, 10
0	3758	69	#line 3758 "NXCDefs.h"
0	3759	69		mov __SetSensorType_7qG2_type_7qG2_000_inline_SetSensorLowspeed_inline_main, __D0SetSensorLowspeed_inline_main
0	3663	71	#line 3663 "NXCDefs.h"
0	3664	71		setin __SetSensorType_7qG2_type_7qG2_000_inline_SetSensorLowspeed_inline_main, __SetSensorType_7qG2_port_7qG2_000_inline_SetSensorLowspeed_inline_main, 0
0	3663	75	#line 3663 "NXCDefs.h"
0	3759	75	#line 3759 "NXCDefs.h"
0	3759	75	#line 3759 "NXCDefs.h"
0	3760	75		mov __SetSensorMode_7qG2_port_7qG2_000_inline_SetSensorLowspeed_inline_main, __SetSensorLowspeed_7qG2_port_7qG2_000_inline_main
0	3759	77	#line 3759 "NXCDefs.h"
0	3759	77	#line 3759 "NXCDefs.h"
0	3760	77		set __SetSensorMode_7qG2_mode_7qG2_000_inline_SetSensorLowspeed_inline_main, 0
0	3759	80	#line 3759 "NXCDefs.h"
0	3676	80	#line 3676 "NXCDefs.h"
0	3677	80		setin __SetSensorMode_7qG2_mode_7qG2_000_inline_SetSensorLowspeed_inline_main, __SetSensorMode_7qG2_port_7qG2_000_inline_SetSensorLowspeed_inline_main, 1
0	3676	84	#line 3676 "NXCDefs.h"
0	3760	84	#line 3760 "NXCDefs.h"
0	3760	84	#line 3760 "NXCDefs.h"
0	3761	84		mov __ResetSensor_7qG2_port_7qG2_000_inline_SetSensorLowspeed_inline_main, __SetSensorLowspeed_7qG2_port_7qG2_000_inline_main
0	3760	86	#line 3760 "NXCDefs.h"
0	3694	86	#line 3694 "NXCDefs.h"
0	3695	86	#pragma macro 4
0	3695	86		mov __ResetSensorPort, __SetSensorLowspeed_7qG2_port_7qG2_000_inline_main
0	3695	88		subcall __ResetSensorSubroutine, ____ResetSensorSubroutine_return
0	7756	90	#line 7756 "NXCDefs.h"
0	3694	90	#line 3694 "NXCDefs.h"
0	3761	90	#line 3761 "NXCDefs.h"
0	160	90	#line 160 "C:\Users\Mees\Documents\GitHub\NXT-voetbal\aanvaller.nxc"
0	160	90	#line 160 "C:\Users\Mees\Documents\GitHub\NXT-voetbal\aanvaller.nxc"
0	161	90	#pragma macro 30
0	161	90		acquire __RLSBmutex1
0	161	91		mov __RLSReadBuf1, __RLSBbufLSWrite1
0	161	93		set __RLSBytesCount1, 2
0	161	96		subcall __ReadLSBytes1, ____ReadLSBytes1_return
0	161	98		index __D0main, __RLSReadBuf1, 65535
0	161	102		index __RLSBytesCount1, __RLSReadBuf1, __constVal1
0	161	106		add __D0main, __D0main, __D0main
0	161	110		add __D0main, __D0main, __RLSBytesCount1
0	161	114		release __RLSBmutex1
0	7761	115	#line 7761 "C:\Users\Mees\Documents\GitHub\NXT-voetbal\aanvaller.nxc"
0	161	115	#line 161 "C:\Users\Mees\Documents\GitHub\NXT-voetbal\aanvaller.nxc"
0	162	115		mov beginwaarde, __D0main
0	161	117	#line 161 "C:\Users\Mees\Documents\GitHub\NXT-voetbal\aanvaller.nxc"
0	161	117	#line 161 "C:\Users\Mees\Documents\GitHub\NXT-voetbal\aanvaller.nxc"
0	162	117		set __SetSensorLowspeed_7qG2_port_7qG2_000_inline_main, 2
0	161	120	#line 161 "C:\Users\Mees\Documents\GitHub\NXT-voetbal\aanvaller.nxc"
0	162	120	#line 162 "C:\Users\Mees\Documents\GitHub\NXT-voetbal\aanvaller.nxc"
0	163	120		mov __SetSensorLowspeed_7qG2_bIsPowered_7qG2_000_inline_main, __constVal1
0	3758	122	#line 3758 "NXCDefs.h"
0	3759	122		mov __SetSensorType_7qG2_port_7qG2_000_inline_SetSensorLowspeed_inline_main, __SetSensorLowspeed_7qG2_port_7qG2_000_inline_main
0	3758	124	#line 3758 "NXCDefs.h"
0	3758	124	#line 3758 "NXCDefs.h"
0	3759	124		mov __DU0SetSensorLowspeed_inline_main, __SetSensorLowspeed_7qG2_bIsPowered_7qG2_000_inline_main
0	3758	126	#line 3758 "NXCDefs.h"
0	3759	126		tst 5, __zfSetSensorLowspeed_inline_main, __DU0SetSensorLowspeed_inline_main
0	3758	129	#line 3758 "NXCDefs.h"
0	3759	129		brtst 4, __006__NXC_Label_36, __zfSetSensorLowspeed_inline_main
0	3758	132	#line 3758 "NXCDefs.h"
0	3759	132		set __D0SetSensorLowspeed_inline_main, 11
0	3758	135	#line 3758 "NXCDefs.h"
0	3759	135		jmp __006__NXC_Label_37
0	3758	137	#line 3758 "NXCDefs.h"
0	3759	137		set __D0SetSensorLowspeed_inline_main, 10
0	3758	140	#line 3758 "NXCDefs.h"
0	3759	140		mov __SetSensorType_7qG2_type_7qG2_000_inline_SetSensorLowspeed_inline_main, __D0SetSensorLowspeed_inline_main
0	3663	142	#line 3663 "NXCDefs.h"
0	3664	142		setin __SetSensorType_7qG2_type_7qG2_000_inline_SetSensorLowspeed_inline_main, __SetSensorType_7qG2_port_7qG2_000_inline_SetSensorLowspeed_inline_main, 0
0	3663	146	#line 3663 "NXCDefs.h"
0	3759	146	#line 3759 "NXCDefs.h"
0	3759	146	#line 3759 "NXCDefs.h"
0	3760	146		mov __SetSensorMode_7qG2_port_7qG2_000_inline_SetSensorLowspeed_inline_main, __SetSensorLowspeed_7qG2_port_7qG2_000_inline_main
0	3759	148	#line 3759 "NXCDefs.h"
0	3759	148	#line 3759 "NXCDefs.h"
0	3760	148		set __SetSensorMode_7qG2_mode_7qG2_000_inline_SetSensorLowspeed_inline_main, 0
0	3759	151	#line 3759 "NXCDefs.h"
0	3676	151	#line 3676 "NXCDefs.h"
0	3677	151		setin __SetSensorMode_7qG2_mode_7qG2_000_inline_SetSensorLowspeed_inline_main, __SetSensorMode_7qG2_port_7qG2_000_inline_SetSensorLowspeed_inline_main, 1
0	3676	155	#line 3676 "NXCDefs.h"
0	3760	155	#line 3760 "NXCDefs.h"
0	3760	155	#line 3760 "NXCDefs.h"
0	3761	155		mov __ResetSensor_7qG2_port_7qG2_000_inline_SetSensorLowspeed_inline_main, __SetSensorLowspeed_7qG2_port_7qG2_000_inline_main
0	3760	157	#line 3760 "NXCDefs.h"
0	3694	157	#line 3694 "NXCDefs.h"
0	3695	157	#pragma macro 4
0	3695	157		mov __ResetSensorPort, __SetSensorLowspeed_7qG2_port_7qG2_000_inline_main
0	3695	159		subcall __ResetSensorSubroutine, ____ResetSensorSubroutine_return
0	7830	161	#line 7830 "NXCDefs.h"
0	3694	161	#line 3694 "NXCDefs.h"
0	3761	161	#line 3761 "NXCDefs.h"
0	162	161	#line 162 "C:\Users\Mees\Documents\GitHub\NXT-voetbal\aanvaller.nxc"
0	162	161	#line 162 "C:\Users\Mees\Documents\GitHub\NXT-voetbal\aanvaller.nxc"
0	163	161		set __SetSensorLight_7qG2_port_7qG2_000_inline_main, 3
0	162	164	#line 162 "C:\Users\Mees\Documents\GitHub\NXT-voetbal\aanvaller.nxc"
0	164	164	#line 164 "C:\Users\Mees\Documents\GitHub\NXT-voetbal\aanvaller.nxc"
0	165	164		mov __SetSensorLight_7qG2_bActive_7qG2_000_inline_main, __constVal1
0	3729	166	#line 3729 "NXCDefs.h"
0	3730	166		mov __SetSensorType_7qG2_port_7qG2_000_inline_SetSensorLight_inline_main, __SetSensorLight_7qG2_port_7qG2_000_inline_main
0	3729	168	#line 3729 "NXCDefs.h"
0	3729	168	#line 3729 "NXCDefs.h"
0	3730	168		mov __DU0SetSensorLight_inline_main, __SetSensorLight_7qG2_bActive_7qG2_000_inline_main
0	3729	170	#line 3729 "NXCDefs.h"
0	3730	170		tst 5, __zfSetSensorLight_inline_main, __DU0SetSensorLight_inline_main
0	3729	173	#line 3729 "NXCDefs.h"
0	3730	173		brtst 4, __001__NXC_Label_4, __zfSetSensorLight_inline_main
0	3729	176	#line 3729 "NXCDefs.h"
0	3730	176		set __D0SetSensorLight_inline_main, 5
0	3729	179	#line 3729 "NXCDefs.h"
0	3730	179		jmp __001__NXC_Label_5
0	3729	181	#line 3729 "NXCDefs.h"
0	3730	181		set __D0SetSensorLight_inline_main, 6
0	3729	184	#line 3729 "NXCDefs.h"
0	3730	184		mov __SetSensorType_7qG2_type_7qG2_000_inline_SetSensorLight_inline_main, __D0SetSensorLight_inline_main
0	3663	186	#line 3663 "NXCDefs.h"
0	3664	186		setin __SetSensorType_7qG2_type_7qG2_000_inline_SetSensorLight_inline_main, __SetSensorType_7qG2_port_7qG2_000_inline_SetSensorLight_inline_main, 0
0	3663	190	#line 3663 "NXCDefs.h"
0	3730	190	#line 3730 "NXCDefs.h"
0	3730	190	#line 3730 "NXCDefs.h"
0	3731	190		mov __SetSensorMode_7qG2_port_7qG2_000_inline_SetSensorLight_inline_main, __SetSensorLight_7qG2_port_7qG2_000_inline_main
0	3730	192	#line 3730 "NXCDefs.h"
0	3730	192	#line 3730 "NXCDefs.h"
0	3731	192		set __SetSensorMode_7qG2_mode_7qG2_000_inline_SetSensorLight_inline_main, 128
0	3730	195	#line 3730 "NXCDefs.h"
0	3676	195	#line 3676 "NXCDefs.h"
0	3677	195		setin __SetSensorMode_7qG2_mode_7qG2_000_inline_SetSensorLight_inline_main, __SetSensorMode_7qG2_port_7qG2_000_inline_SetSensorLight_inline_main, 1
0	3676	199	#line 3676 "NXCDefs.h"
0	3731	199	#line 3731 "NXCDefs.h"
0	3731	199	#line 3731 "NXCDefs.h"
0	3731	199	#line 3731 "NXCDefs.h"
0	3694	199	#line 3694 "NXCDefs.h"
0	3695	199	#pragma macro 4
0	3695	199		mov __ResetSensorPort, __SetSensorLight_7qG2_port_7qG2_000_inline_main
0	3695	201		subcall __ResetSensorSubroutine, ____ResetSensorSubroutine_return
0	7925	203	#line 7925 "NXCDefs.h"
0	3694	203	#line 3694 "NXCDefs.h"
0	3732	203	#line 3732 "NXCDefs.h"
0	164	203	#line 164 "C:\Users\Mees\Documents\GitHub\NXT-voetbal\aanvaller.nxc"
0	165	203	#line 165 "C:\Users\Mees\Documents\GitHub\NXT-voetbal\aanvaller.nxc"
0	166	203		set __D0main, 1
0	167	206	#line 167 "C:\Users\Mees\Documents\GitHub\NXT-voetbal\aanvaller.nxc"
0	168	206		tst 5, __zfmain, __D0main
0	167	209	#line 167 "C:\Users\Mees\Documents\GitHub\NXT-voetbal\aanvaller.nxc"
0	168	209		brtst 4, __NXC_Label_833, __zfmain
0	167	212	#line 167 "C:\Users\Mees\Documents\GitHub\NXT-voetbal\aanvaller.nxc"
0	168	212		set __HTEnhancedIRSeekerV2_7qG2_port_7qG2_000, 0
0	167	215	#line 167 "C:\Users\Mees\Documents\GitHub\NXT-voetbal\aanvaller.nxc"
0	167	215	#line 167 "C:\Users\Mees\Documents\GitHub\NXT-voetbal\aanvaller.nxc"
0	168	215		mov __HTEnhancedIRSeekerV2_7qG2_dir_7qG2_000, __main_7qG2_richting_7qG2_000
0	167	217	#line 167 "C:\Users\Mees\Documents\GitHub\NXT-voetbal\aanvaller.nxc"
0	168	217		mov __HTEnhancedIRSeekerV2_7qG2_strength_7qG2_000, __main_7qG2_afstand_7qG2_000
0	168	219	#line 168 "C:\Users\Mees\Documents\GitHub\NXT-voetbal\aanvaller.nxc"
0	169	219		subcall HTEnhancedIRSeekerV2, __HTEnhancedIRSeekerV2_return
0	168	221	#line 168 "C:\Users\Mees\Documents\GitHub\NXT-voetbal\aanvaller.nxc"
0	169	221		mov __main_7qG2_richting_7qG2_000, __HTEnhancedIRSeekerV2_7qG2_dir_7qG2_000
0	168	223	#line 168 "C:\Users\Mees\Documents\GitHub\NXT-voetbal\aanvaller.nxc"
0	169	223		mov __main_7qG2_afstand_7qG2_000, __HTEnhancedIRSeekerV2_7qG2_strength_7qG2_000
0	168	225	#line 168 "C:\Users\Mees\Documents\GitHub\NXT-voetbal\aanvaller.nxc"
0	168	225	#line 168 "C:\Users\Mees\Documents\GitHub\NXT-voetbal\aanvaller.nxc"
0	169	225		set __signed_stack_001main, 0
0	168	228	#line 168 "C:\Users\Mees\Documents\GitHub\NXT-voetbal\aanvaller.nxc"
0	168	228	#line 168 "C:\Users\Mees\Documents\GitHub\NXT-voetbal\aanvaller.nxc"
0	169	228		set __signed_stack_002main, 40
0	168	231	#line 168 "C:\Users\Mees\Documents\GitHub\NXT-voetbal\aanvaller.nxc"
0	168	231	#line 168 "C:\Users\Mees\Documents\GitHub\NXT-voetbal\aanvaller.nxc"
0	169	231		strcat __strbufmain, __constStr0010
0	168	235	#line 168 "C:\Users\Mees\Documents\GitHub\NXT-voetbal\aanvaller.nxc"
0	169	235		acquire __TextOutMutex
0	168	236	#line 168 "C:\Users\Mees\Documents\GitHub\NXT-voetbal\aanvaller.nxc"
0	169	236		mov __TextOutArgs.Location.X, __signed_stack_001main
0	168	238	#line 168 "C:\Users\Mees\Documents\GitHub\NXT-voetbal\aanvaller.nxc"
0	169	238		mov __TextOutArgs.Location.Y, __signed_stack_002main
0	168	240	#line 168 "C:\Users\Mees\Documents\GitHub\NXT-voetbal\aanvaller.nxc"
0	169	240		set __TextOutArgs.Options, 0
0	168	243	#line 168 "C:\Users\Mees\Documents\GitHub\NXT-voetbal\aanvaller.nxc"
0	169	243		mov __TextOutArgs.Text, __strbufmain
0	168	245	#line 168 "C:\Users\Mees\Documents\GitHub\NXT-voetbal\aanvaller.nxc"
0	169	245		syscall 13, __TextOutArgs
0	168	248	#line 168 "C:\Users\Mees\Documents\GitHub\NXT-voetbal\aanvaller.nxc"
0	169	248		mov __D0main, __TextOutArgs.Result
0	168	250	#line 168 "C:\Users\Mees\Documents\GitHub\NXT-voetbal\aanvaller.nxc"
0	169	250		release __TextOutMutex
0	168	251	#line 168 "C:\Users\Mees\Documents\GitHub\NXT-voetbal\aanvaller.nxc"
0	168	251	#line 168 "C:\Users\Mees\Documents\GitHub\NXT-voetbal\aanvaller.nxc"
0	169	251		set __signed_stack_001main, 24
0	168	254	#line 168 "C:\Users\Mees\Documents\GitHub\NXT-voetbal\aanvaller.nxc"
0	168	254	#line 168 "C:\Users\Mees\Documents\GitHub\NXT-voetbal\aanvaller.nxc"
0	169	254		set __signed_stack_002main, 40
0	168	257	#line 168 "C:\Users\Mees\Documents\GitHub\NXT-voetbal\aanvaller.nxc"
0	168	257	#line 168 "C:\Users\Mees\Documents\GitHub\NXT-voetbal\aanvaller.nxc"
0	169	257		mov __D0main, __main_7qG2_richting_7qG2_000
0	169	259	#line 169 "C:\Users\Mees\Documents\GitHub\NXT-voetbal\aanvaller.nxc"
0	170	259		acquire __TextOutMutex
0	169	260	#line 169 "C:\Users\Mees\Documents\GitHub\NXT-voetbal\aanvaller.nxc"
0	170	260		mov __TextOutArgs.Location.X, __signed_stack_001main
0	169	262	#line 169 "C:\Users\Mees\Documents\GitHub\NXT-voetbal\aanvaller.nxc"
0	170	262		mov __TextOutArgs.Location.Y, __signed_stack_002main
0	169	264	#line 169 "C:\Users\Mees\Documents\GitHub\NXT-voetbal\aanvaller.nxc"
0	170	264		set __TextOutArgs.Options, 0
0	169	267	#line 169 "C:\Users\Mees\Documents\GitHub\NXT-voetbal\aanvaller.nxc"
0	170	267		numtostr __TextOutArgs.Text, __D0main
0	169	270	#line 169 "C:\Users\Mees\Documents\GitHub\NXT-voetbal\aanvaller.nxc"
0	170	270		syscall 13, __TextOutArgs
0	169	273	#line 169 "C:\Users\Mees\Documents\GitHub\NXT-voetbal\aanvaller.nxc"
0	170	273		mov __D0main, __TextOutArgs.Result
0	169	275	#line 169 "C:\Users\Mees\Documents\GitHub\NXT-voetbal\aanvaller.nxc"
0	170	275		release __TextOutMutex
0	169	276	#line 169 "C:\Users\Mees\Documents\GitHub\NXT-voetbal\aanvaller.nxc"
0	169	276	#line 169 "C:\Users\Mees\Documents\GitHub\NXT-voetbal\aanvaller.nxc"
0	170	276		set __signed_stack_001main, 6
0	169	279	#line 169 "C:\Users\Mees\Documents\GitHub\NXT-voetbal\aanvaller.nxc"
0	169	279	#line 169 "C:\Users\Mees\Documents\GitHub\NXT-voetbal\aanvaller.nxc"
0	170	279		set __signed_stack_002main, 32
0	169	282	#line 169 "C:\Users\Mees\Documents\GitHub\NXT-voetbal\aanvaller.nxc"
0	169	282	#line 169 "C:\Users\Mees\Documents\GitHub\NXT-voetbal\aanvaller.nxc"
0	170	282		strcat __strbufmain, __constStr0011
0	169	286	#line 169 "C:\Users\Mees\Documents\GitHub\NXT-voetbal\aanvaller.nxc"
0	170	286		acquire __TextOutMutex
0	169	287	#line 169 "C:\Users\Mees\Documents\GitHub\NXT-voetbal\aanvaller.nxc"
0	170	287		mov __TextOutArgs.Location.X, __signed_stack_001main
0	169	289	#line 169 "C:\Users\Mees\Documents\GitHub\NXT-voetbal\aanvaller.nxc"
0	170	289		mov __TextOutArgs.Location.Y, __signed_stack_002main
0	169	291	#line 169 "C:\Users\Mees\Documents\GitHub\NXT-voetbal\aanvaller.nxc"
0	170	291		set __TextOutArgs.Options, 0
0	169	294	#line 169 "C:\Users\Mees\Documents\GitHub\NXT-voetbal\aanvaller.nxc"
0	170	294		mov __TextOutArgs.Text, __strbufmain
0	169	296	#line 169 "C:\Users\Mees\Documents\GitHub\NXT-voetbal\aanvaller.nxc"
0	170	296		syscall 13, __TextOutArgs
0	169	299	#line 169 "C:\Users\Mees\Documents\GitHub\NXT-voetbal\aanvaller.nxc"
0	170	299		mov __D0main, __TextOutArgs.Result
0	169	301	#line 169 "C:\Users\Mees\Documents\GitHub\NXT-voetbal\aanvaller.nxc"
0	170	301		release __TextOutMutex
0	169	302	#line 169 "C:\Users\Mees\Documents\GitHub\NXT-voetbal\aanvaller.nxc"
0	169	302	#line 169 "C:\Users\Mees\Documents\GitHub\NXT-voetbal\aanvaller.nxc"
0	170	302		set __signed_stack_001main, 30
0	169	305	#line 169 "C:\Users\Mees\Documents\GitHub\NXT-voetbal\aanvaller.nxc"
0	169	305	#line 169 "C:\Users\Mees\Documents\GitHub\NXT-voetbal\aanvaller.nxc"
0	170	305		set __signed_stack_002main, 32
0	169	308	#line 169 "C:\Users\Mees\Documents\GitHub\NXT-voetbal\aanvaller.nxc"
0	169	308	#line 169 "C:\Users\Mees\Documents\GitHub\NXT-voetbal\aanvaller.nxc"
0	170	308		mov __D0main, __main_7qG2_afstand_7qG2_000
0	171	310	#line 171 "C:\Users\Mees\Documents\GitHub\NXT-voetbal\aanvaller.nxc"
0	172	310		acquire __TextOutMutex
0	171	311	#line 171 "C:\Users\Mees\Documents\GitHub\NXT-voetbal\aanvaller.nxc"
0	172	311		mov __TextOutArgs.Location.X, __signed_stack_001main
0	171	313	#line 171 "C:\Users\Mees\Documents\GitHub\NXT-voetbal\aanvaller.nxc"
0	172	313		mov __TextOutArgs.Location.Y, __signed_stack_002main
0	171	315	#line 171 "C:\Users\Mees\Documents\GitHub\NXT-voetbal\aanvaller.nxc"
0	172	315		set __TextOutArgs.Options, 0
0	171	318	#line 171 "C:\Users\Mees\Documents\GitHub\NXT-voetbal\aanvaller.nxc"
0	172	318		numtostr __TextOutArgs.Text, __D0main
0	171	321	#line 171 "C:\Users\Mees\Documents\GitHub\NXT-voetbal\aanvaller.nxc"
0	172	321		syscall 13, __TextOutArgs
0	171	324	#line 171 "C:\Users\Mees\Documents\GitHub\NXT-voetbal\aanvaller.nxc"
0	172	324		mov __D0main, __TextOutArgs.Result
0	171	326	#line 171 "C:\Users\Mees\Documents\GitHub\NXT-voetbal\aanvaller.nxc"
0	172	326		release __TextOutMutex
0	171	327	#line 171 "C:\Users\Mees\Documents\GitHub\NXT-voetbal\aanvaller.nxc"
0	171	327	#line 171 "C:\Users\Mees\Documents\GitHub\NXT-voetbal\aanvaller.nxc"
0	172	327		set __signed_stack_001main, 5
0	171	330	#line 171 "C:\Users\Mees\Documents\GitHub\NXT-voetbal\aanvaller.nxc"
0	171	330	#line 171 "C:\Users\Mees\Documents\GitHub\NXT-voetbal\aanvaller.nxc"
0	172	330		set __signed_stack_002main, 24
0	171	333	#line 171 "C:\Users\Mees\Documents\GitHub\NXT-voetbal\aanvaller.nxc"
0	171	333	#line 171 "C:\Users\Mees\Documents\GitHub\NXT-voetbal\aanvaller.nxc"
0	172	333		subcall compaswaarde, __compaswaarde_return
0	171	335	#line 171 "C:\Users\Mees\Documents\GitHub\NXT-voetbal\aanvaller.nxc"
0	172	335		mov __D0main, __D0compaswaarde
0	172	337	#line 172 "C:\Users\Mees\Documents\GitHub\NXT-voetbal\aanvaller.nxc"
0	173	337		acquire __TextOutMutex
0	172	338	#line 172 "C:\Users\Mees\Documents\GitHub\NXT-voetbal\aanvaller.nxc"
0	173	338		mov __TextOutArgs.Location.X, __signed_stack_001main
0	172	340	#line 172 "C:\Users\Mees\Documents\GitHub\NXT-voetbal\aanvaller.nxc"
0	173	340		mov __TextOutArgs.Location.Y, __signed_stack_002main
0	172	342	#line 172 "C:\Users\Mees\Documents\GitHub\NXT-voetbal\aanvaller.nxc"
0	173	342		set __TextOutArgs.Options, 0
0	172	345	#line 172 "C:\Users\Mees\Documents\GitHub\NXT-voetbal\aanvaller.nxc"
0	173	345		numtostr __TextOutArgs.Text, __D0main
0	172	348	#line 172 "C:\Users\Mees\Documents\GitHub\NXT-voetbal\aanvaller.nxc"
0	173	348		syscall 13, __TextOutArgs
0	172	351	#line 172 "C:\Users\Mees\Documents\GitHub\NXT-voetbal\aanvaller.nxc"
0	173	351		mov __D0main, __TextOutArgs.Result
0	172	353	#line 172 "C:\Users\Mees\Documents\GitHub\NXT-voetbal\aanvaller.nxc"
0	173	353		release __TextOutMutex
0	172	354	#line 172 "C:\Users\Mees\Documents\GitHub\NXT-voetbal\aanvaller.nxc"
0	172	354	#line 172 "C:\Users\Mees\Documents\GitHub\NXT-voetbal\aanvaller.nxc"
0	173	354		set __signed_stack_001main, 20
0	172	357	#line 172 "C:\Users\Mees\Documents\GitHub\NXT-voetbal\aanvaller.nxc"
0	172	357	#line 172 "C:\Users\Mees\Documents\GitHub\NXT-voetbal\aanvaller.nxc"
0	173	357		set __signed_stack_002main, 0
0	172	360	#line 172 "C:\Users\Mees\Documents\GitHub\NXT-voetbal\aanvaller.nxc"
0	172	360	#line 172 "C:\Users\Mees\Documents\GitHub\NXT-voetbal\aanvaller.nxc"
0	173	360	#pragma macro 26
0	173	360		acquire __RLSBmutex2
0	173	361		mov __RLSReadBuf2, __RLSBbufLSWrite1
0	173	363		set __RLSBytesCount2, 1
0	173	366		wait 15
0	173	368		subcall __ReadLSBytes2, ____ReadLSBytes2_return
0	173	370		index __D0main, __RLSReadBuf2, 65535
0	173	374		release __RLSBmutex2
0	8131	375	#line 8131 "C:\Users\Mees\Documents\GitHub\NXT-voetbal\aanvaller.nxc"
0	173	375	#line 173 "C:\Users\Mees\Documents\GitHub\NXT-voetbal\aanvaller.nxc"
0	174	375		acquire __TextOutMutex
0	173	376	#line 173 "C:\Users\Mees\Documents\GitHub\NXT-voetbal\aanvaller.nxc"
0	174	376		mov __TextOutArgs.Location.X, __signed_stack_001main
0	173	378	#line 173 "C:\Users\Mees\Documents\GitHub\NXT-voetbal\aanvaller.nxc"
0	174	378		mov __TextOutArgs.Location.Y, __signed_stack_002main
0	173	380	#line 173 "C:\Users\Mees\Documents\GitHub\NXT-voetbal\aanvaller.nxc"
0	174	380		set __TextOutArgs.Options, 0
0	173	383	#line 173 "C:\Users\Mees\Documents\GitHub\NXT-voetbal\aanvaller.nxc"
0	174	383		numtostr __TextOutArgs.Text, __D0main
0	173	386	#line 173 "C:\Users\Mees\Documents\GitHub\NXT-voetbal\aanvaller.nxc"
0	174	386		syscall 13, __TextOutArgs
0	173	389	#line 173 "C:\Users\Mees\Documents\GitHub\NXT-voetbal\aanvaller.nxc"
0	174	389		mov __D0main, __TextOutArgs.Result
0	173	391	#line 173 "C:\Users\Mees\Documents\GitHub\NXT-voetbal\aanvaller.nxc"
0	174	391		release __TextOutMutex
0	173	392	#line 173 "C:\Users\Mees\Documents\GitHub\NXT-voetbal\aanvaller.nxc"
0	173	392	#line 173 "C:\Users\Mees\Documents\GitHub\NXT-voetbal\aanvaller.nxc"
0	173	392	#line 173 "C:\Users\Mees\Documents\GitHub\NXT-voetbal\aanvaller.nxc"
0	174	392		set __signed_stack_001main, 5
0	173	395	#line 173 "C:\Users\Mees\Documents\GitHub\NXT-voetbal\aanvaller.nxc"
0	173	395	#line 173 "C:\Users\Mees\Documents\GitHub\NXT-voetbal\aanvaller.nxc"
0	174	395		set __signed_stack_002main, 0
0	173	398	#line 173 "C:\Users\Mees\Documents\GitHub\NXT-voetbal\aanvaller.nxc"
0	173	398	#line 173 "C:\Users\Mees\Documents\GitHub\NXT-voetbal\aanvaller.nxc"
0	174	398		getin __D0main, __constVal3, 4
0	174	402	#line 174 "C:\Users\Mees\Documents\GitHub\NXT-voetbal\aanvaller.nxc"
0	175	402		acquire __TextOutMutex
0	174	403	#line 174 "C:\Users\Mees\Documents\GitHub\NXT-voetbal\aanvaller.nxc"
0	175	403		mov __TextOutArgs.Location.X, __signed_stack_001main
0	174	405	#line 174 "C:\Users\Mees\Documents\GitHub\NXT-voetbal\aanvaller.nxc"
0	175	405		mov __TextOutArgs.Location.Y, __signed_stack_002main
0	174	407	#line 174 "C:\Users\Mees\Documents\GitHub\NXT-voetbal\aanvaller.nxc"
0	175	407		set __TextOutArgs.Options, 0
0	174	410	#line 174 "C:\Users\Mees\Documents\GitHub\NXT-voetbal\aanvaller.nxc"
0	175	410		numtostr __TextOutArgs.Text, __D0main
0	174	413	#line 174 "C:\Users\Mees\Documents\GitHub\NXT-voetbal\aanvaller.nxc"
0	175	413		syscall 13, __TextOutArgs
0	174	416	#line 174 "C:\Users\Mees\Documents\GitHub\NXT-voetbal\aanvaller.nxc"
0	175	416		mov __D0main, __TextOutArgs.Result
0	174	418	#line 174 "C:\Users\Mees\Documents\GitHub\NXT-voetbal\aanvaller.nxc"
0	175	418		release __TextOutMutex
0	174	419	#line 174 "C:\Users\Mees\Documents\GitHub\NXT-voetbal\aanvaller.nxc"
0	174	419	#line 174 "C:\Users\Mees\Documents\GitHub\NXT-voetbal\aanvaller.nxc"
0	174	419	#line 174 "C:\Users\Mees\Documents\GitHub\NXT-voetbal\aanvaller.nxc"
0	175	419		getin __signed_stack_001main, __constVal3, 4
0	174	423	#line 174 "C:\Users\Mees\Documents\GitHub\NXT-voetbal\aanvaller.nxc"
0	174	423	#line 174 "C:\Users\Mees\Documents\GitHub\NXT-voetbal\aanvaller.nxc"
0	175	423		set __D0main, 50
0	174	426	#line 174 "C:\Users\Mees\Documents\GitHub\NXT-voetbal\aanvaller.nxc"
0	175	426		cmp 1, __zfmain, __signed_stack_001main, __D0main
0	174	430	#line 174 "C:\Users\Mees\Documents\GitHub\NXT-voetbal\aanvaller.nxc"
0	175	430		mov __D0main, __zfmain
0	174	432	#line 174 "C:\Users\Mees\Documents\GitHub\NXT-voetbal\aanvaller.nxc"
0	175	432		brtst 4, __NXC_Label_878, __zfmain
0	175	435	#line 175 "C:\Users\Mees\Documents\GitHub\NXT-voetbal\aanvaller.nxc"
0	176	435		subcall ZijLijn, __ZijLijn_return
0	175	437	#line 175 "C:\Users\Mees\Documents\GitHub\NXT-voetbal\aanvaller.nxc"
0	175	437	#line 175 "C:\Users\Mees\Documents\GitHub\NXT-voetbal\aanvaller.nxc"
0	175	437	#line 175 "C:\Users\Mees\Documents\GitHub\NXT-voetbal\aanvaller.nxc"
0	176	437		mov __signed_stack_001main, __main_7qG2_afstand_7qG2_000
0	175	439	#line 175 "C:\Users\Mees\Documents\GitHub\NXT-voetbal\aanvaller.nxc"
0	176	439	#line 176 "C:\Users\Mees\Documents\GitHub\NXT-voetbal\aanvaller.nxc"
0	177	439		set __D0main, 150
0	176	442	#line 176 "C:\Users\Mees\Documents\GitHub\NXT-voetbal\aanvaller.nxc"
0	177	442		cmp 0, __zfmain, __signed_stack_001main, __D0main
0	176	446	#line 176 "C:\Users\Mees\Documents\GitHub\NXT-voetbal\aanvaller.nxc"
0	177	446		mov __D0main, __zfmain
0	177	448	#line 177 "C:\Users\Mees\Documents\GitHub\NXT-voetbal\aanvaller.nxc"
0	178	448		brtst 4, __NXC_Label_881, __zfmain
0	177	451	#line 177 "C:\Users\Mees\Documents\GitHub\NXT-voetbal\aanvaller.nxc"
0	178	451		set __signed_stack_001main, 0
0	177	454	#line 177 "C:\Users\Mees\Documents\GitHub\NXT-voetbal\aanvaller.nxc"
0	177	454	#line 177 "C:\Users\Mees\Documents\GitHub\NXT-voetbal\aanvaller.nxc"
0	178	454		set __signed_stack_002main, 8
0	177	457	#line 177 "C:\Users\Mees\Documents\GitHub\NXT-voetbal\aanvaller.nxc"
0	177	457	#line 177 "C:\Users\Mees\Documents\GitHub\NXT-voetbal\aanvaller.nxc"
0	178	457		strcat __strbufmain, __constStr0012
0	178	461	#line 178 "C:\Users\Mees\Documents\GitHub\NXT-voetbal\aanvaller.nxc"
0	179	461		acquire __TextOutMutex
0	178	462	#line 178 "C:\Users\Mees\Documents\GitHub\NXT-voetbal\aanvaller.nxc"
0	179	462		mov __TextOutArgs.Location.X, __signed_stack_001main
0	178	464	#line 178 "C:\Users\Mees\Documents\GitHub\NXT-voetbal\aanvaller.nxc"
0	179	464		mov __TextOutArgs.Location.Y, __signed_stack_002main
0	178	466	#line 178 "C:\Users\Mees\Documents\GitHub\NXT-voetbal\aanvaller.nxc"
0	179	466		set __TextOutArgs.Options, 0
0	178	469	#line 178 "C:\Users\Mees\Documents\GitHub\NXT-voetbal\aanvaller.nxc"
0	179	469		mov __TextOutArgs.Text, __strbufmain
0	178	471	#line 178 "C:\Users\Mees\Documents\GitHub\NXT-voetbal\aanvaller.nxc"
0	179	471		syscall 13, __TextOutArgs
0	178	474	#line 178 "C:\Users\Mees\Documents\GitHub\NXT-voetbal\aanvaller.nxc"
0	179	474		mov __D0main, __TextOutArgs.Result
0	178	476	#line 178 "C:\Users\Mees\Documents\GitHub\NXT-voetbal\aanvaller.nxc"
0	179	476		release __TextOutMutex
0	178	477	#line 178 "C:\Users\Mees\Documents\GitHub\NXT-voetbal\aanvaller.nxc"
0	178	477	#line 178 "C:\Users\Mees\Documents\GitHub\NXT-voetbal\aanvaller.nxc"
0	179	477		mov __Sturen_7qG2_richting_7qG2_000, __main_7qG2_richting_7qG2_000
0	178	479	#line 178 "C:\Users\Mees\Documents\GitHub\NXT-voetbal\aanvaller.nxc"
0	178	479	#line 178 "C:\Users\Mees\Documents\GitHub\NXT-voetbal\aanvaller.nxc"
0	178	479	#line 178 "C:\Users\Mees\Documents\GitHub\NXT-voetbal\aanvaller.nxc"
0	179	479	#line 179 "C:\Users\Mees\Documents\GitHub\NXT-voetbal\aanvaller.nxc"
0	180	479		subcall Sturen, __Sturen_return
0	179	481	#line 179 "C:\Users\Mees\Documents\GitHub\NXT-voetbal\aanvaller.nxc"
0	180	481	#line 180 "C:\Users\Mees\Documents\GitHub\NXT-voetbal\aanvaller.nxc"
0	180	481	#line 180 "C:\Users\Mees\Documents\GitHub\NXT-voetbal\aanvaller.nxc"
0	181	481		mov __signed_stack_001main, __main_7qG2_afstand_7qG2_000
0	180	483	#line 180 "C:\Users\Mees\Documents\GitHub\NXT-voetbal\aanvaller.nxc"
0	180	483	#line 180 "C:\Users\Mees\Documents\GitHub\NXT-voetbal\aanvaller.nxc"
0	181	483		set __D0main, 150
0	180	486	#line 180 "C:\Users\Mees\Documents\GitHub\NXT-voetbal\aanvaller.nxc"
0	181	486		cmp 1, __zfmain, __signed_stack_001main, __D0main
0	180	490	#line 180 "C:\Users\Mees\Documents\GitHub\NXT-voetbal\aanvaller.nxc"
0	181	490		mov __D0main, __zfmain
0	180	492	#line 180 "C:\Users\Mees\Documents\GitHub\NXT-voetbal\aanvaller.nxc"
0	181	492		brtst 4, __NXC_Label_891, __zfmain
0	180	495	#line 180 "C:\Users\Mees\Documents\GitHub\NXT-voetbal\aanvaller.nxc"
0	181	495		mov __signed_stack_001main, __D0main
0	180	497	#line 180 "C:\Users\Mees\Documents\GitHub\NXT-voetbal\aanvaller.nxc"
0	181	497		mov __signed_stack_002main, __main_7qG2_richting_7qG2_000
0	180	499	#line 180 "C:\Users\Mees\Documents\GitHub\NXT-voetbal\aanvaller.nxc"
0	181	499	#line 181 "C:\Users\Mees\Documents\GitHub\NXT-voetbal\aanvaller.nxc"
0	182	499		set __D0main, 5
0	181	502	#line 181 "C:\Users\Mees\Documents\GitHub\NXT-voetbal\aanvaller.nxc"
0	182	502		cmp 4, __zfmain, __signed_stack_002main, __D0main
0	181	506	#line 181 "C:\Users\Mees\Documents\GitHub\NXT-voetbal\aanvaller.nxc"
0	181	506	#line 181 "C:\Users\Mees\Documents\GitHub\NXT-voetbal\aanvaller.nxc"
0	182	506		and __D0main, __signed_stack_001main, __zfmain
0	182	510	#line 182 "C:\Users\Mees\Documents\GitHub\NXT-voetbal\aanvaller.nxc"
0	183	510		tst 5, __zfmain, __D0main
0	182	513	#line 182 "C:\Users\Mees\Documents\GitHub\NXT-voetbal\aanvaller.nxc"
0	183	513		brtst 4, __NXC_Label_892, __zfmain
0	182	516	#line 182 "C:\Users\Mees\Documents\GitHub\NXT-voetbal\aanvaller.nxc"
0	183	516		set __signed_stack_001main, 0
0	182	519	#line 182 "C:\Users\Mees\Documents\GitHub\NXT-voetbal\aanvaller.nxc"
0	182	519	#line 182 "C:\Users\Mees\Documents\GitHub\NXT-voetbal\aanvaller.nxc"
0	183	519		set __signed_stack_002main, 8
0	182	522	#line 182 "C:\Users\Mees\Documents\GitHub\NXT-voetbal\aanvaller.nxc"
0	182	522	#line 182 "C:\Users\Mees\Documents\GitHub\NXT-voetbal\aanvaller.nxc"
0	183	522		strcat __strbufmain, __constStr0013
0	183	526	#line 183 "C:\Users\Mees\Documents\GitHub\NXT-voetbal\aanvaller.nxc"
0	184	526		acquire __TextOutMutex
0	183	527	#line 183 "C:\Users\Mees\Documents\GitHub\NXT-voetbal\aanvaller.nxc"
0	184	527		mov __TextOutArgs.Location.X, __signed_stack_001main
0	183	529	#line 183 "C:\Users\Mees\Documents\GitHub\NXT-voetbal\aanvaller.nxc"
0	184	529		mov __TextOutArgs.Location.Y, __signed_stack_002main
0	183	531	#line 183 "C:\Users\Mees\Documents\GitHub\NXT-voetbal\aanvaller.nxc"
0	184	531		set __TextOutArgs.Options, 0
0	183	534	#line 183 "C:\Users\Mees\Documents\GitHub\NXT-voetbal\aanvaller.nxc"
0	184	534		mov __TextOutArgs.Text, __strbufmain
0	183	536	#line 183 "C:\Users\Mees\Documents\GitHub\NXT-voetbal\aanvaller.nxc"
0	184	536		syscall 13, __TextOutArgs
0	183	539	#line 183 "C:\Users\Mees\Documents\GitHub\NXT-voetbal\aanvaller.nxc"
0	184	539		mov __D0main, __TextOutArgs.Result
0	183	541	#line 183 "C:\Users\Mees\Documents\GitHub\NXT-voetbal\aanvaller.nxc"
0	184	541		release __TextOutMutex
0	183	542	#line 183 "C:\Users\Mees\Documents\GitHub\NXT-voetbal\aanvaller.nxc"
0	184	542	#line 184 "C:\Users\Mees\Documents\GitHub\NXT-voetbal\aanvaller.nxc"
0	185	542		subcall richten, __richten_return
0	184	544	#line 184 "C:\Users\Mees\Documents\GitHub\NXT-voetbal\aanvaller.nxc"
0	186	544	#line 186 "C:\Users\Mees\Documents\GitHub\NXT-voetbal\aanvaller.nxc"
0	188	544	#line 188 "C:\Users\Mees\Documents\GitHub\NXT-voetbal\aanvaller.nxc"
0	189	544		jmp __NXC_Label_832
0	188	546	#line 188 "C:\Users\Mees\Documents\GitHub\NXT-voetbal\aanvaller.nxc"
0	189	546		exit -1, -1
1	4529	0		brtst 4, __rotate_Done1, __rotate_angle1
1	4530	3		sign __rotate_thePower1, __rotate_angle1
1	4531	6		abs __rotate_theAngle1, __rotate_angle1
1	4532	9		mul __rotate_thePower1, __rotate_thePower1, __rotate_power1
1	4534	13		set __rotate_theUF1, 23
1	4535	16		brtst 4, __rotate_NoSync1, __rotate_sync1
1	4536	19		set __rotate_theOM1, 7
1	4537	22		set __rotate_theRM1, 2
1	4538	25		mov __rotate_theTurnPct1, __rotate_turnpct1
1	4539	27		brtst 4, __rotate_Start1, __rotate_theTurnPct1
1	4540	30		add __rotate_theUF1, __rotate_theUF1, __constVal32
1	4541	34		jmp __rotate_Start1
1	4543	36		set __rotate_theOM1, 3
1	4544	39		set __rotate_theRM1, 0
1	4545	42		set __rotate_theTurnPct1, 0
1	4547	45		set __rotate_theRS1, 32
1	4548	48		setout __rotate_ports1, 1, __rotate_theOM1, 8, __rotate_theRM1, 5, __rotate_theAngle1, 6, __rotate_theRS1, 10, __rotate_theRVP1, 11, __rotate_theRVI1, 12, __rotate_theRVD1, 2, __rotate_thePower1, 7, __rotate_turnpct1, 0, __rotate_theUF1
1	4551	71		index __rotate_firstPort1, __rotate_ports1, 65535
1	4553	75		getout __rotate_power1, __rotate_firstPort1, 2
1	4554	79		brtst 4, __rotate_doneRunning1, __rotate_power1
1	4555	82		getout __rotate_rs1, __rotate_firstPort1, 6
1	4556	86		brcmp 4, __rotate_Running1, __rotate_rs1, __constVal32
1	4558	90		brtst 4, __rotate_Reset1, __rotate_stop1
1	4560	93		set __rotate_theOM1, 7
1	4561	96		set __rotate_theUF1, 7
1	4562	99		setout __rotate_ports1, 1, __rotate_theOM1, 8, __constVal1, 6, __rotate_theRS1, 2, __constVal0, 5, __constVal0, 0, __rotate_theUF1
1	4564	114		getout __rotate_RotCount1, __rotate_firstPort1, 14
1	4566	118		mov __rotate_OldRotCount1, __rotate_RotCount1
1	4567	120		wait 50
1	4569	122		getout __rotate_RotCount1, __rotate_firstPort1, 14
1	4570	126		brcmp 5, __rotate_Stabilize1, __rotate_OldRotCount1, __rotate_RotCount1
1	4571	130		set __rotate_theOM1, 4
1	4572	133		setout __rotate_ports1, 8, __rotate_theRM1, 6, __constVal0, 1, __rotate_theOM1, 0, __constVal1
1	4575	144		brtst 4, __rotate_Done1, __rotate_theTurnPct1
1	4576	147		setout __rotate_ports1, 0, __constVal32
1	4578	152		subret ____RotateMotor1_return
2	4885	0		setin __constVal1, __ResetSensorPort, 5
2	4887	4		getin __ResetSensorTmp, __ResetSensorPort, 5
2	4888	8		brtst 5, __SensorStillInvalid, __ResetSensorTmp
2	4889	11		subret ____ResetSensorSubroutine_return
3	5710	0	#pragma macro 25
3	5710	0		acquire __CLSWMutex1
3	5710	1		set __CLSWArgs1.Port, 1
3	5710	4		mov __CLSWArgs1.ReturnLen, __RLSBytesCount1
3	5710	6		mov __CLSWArgs1.Buffer, __RLSReadBuf1
3	5710	8		syscall 21, __CLSWArgs1
3	5710	11		mov __RLSBResult1, __CLSWArgs1.Result
3	5710	13		release __CLSWMutex1
3	5710	14	#line 5710 "NXTDefs.h"
3	5711	14		brtst 4, __RLSBReturn1, __RLSBytesCount1
3	5712	17		arrinit __RLSReadBuf1, __constVal0, __RLSBytesCount1
3	5713	21		brtst 5, __RLSBError1, __RLSBResult1
3	5714	24		set __RLSBIterations1, 4
3	5716	27	#pragma macro 23
3	5716	27		acquire __CLSCSMutex1
3	5716	28		set __CLSCSArgs1.Port, 1
3	5716	31		syscall 23, __CLSCSArgs1
3	5716	34		mov __RLSBytesCount1, __CLSCSArgs1.BytesReady
3	5716	36		mov __RLSBResult1, __CLSCSArgs1.Result
3	5716	38		release __CLSCSMutex1
3	5716	39	#line 5716 "NXTDefs.h"
3	5717	39		sub __RLSBIterations1, __RLSBIterations1, __constVal1
3	5718	43		brtst 2, __RLSBError1, __RLSBIterations1
3	5719	46		brtst 0, __RLSBError1, __RLSBResult1
3	5720	49		brtst 4, __RLSBReadyToRead1, __RLSBResult1
3	5722	52		wait 15
3	5723	54		jmp __RLSBDoCheckStatus1
3	5726	56	#pragma macro 25
3	5726	56		acquire __CLSRMutex1
3	5726	57		set __CLSRArgs1.Port, 1
3	5726	60		mov __CLSRArgs1.BufferLen, __RLSBytesCount1
3	5726	62		syscall 22, __CLSRArgs1
3	5726	65		mov __RLSReadBuf1, __CLSRArgs1.Buffer
3	5726	67		mov __RLSBResult1, __CLSRArgs1.Result
3	5726	69		release __CLSRMutex1
3	5726	70	#line 5726 "NXTDefs.h"
3	5727	70		brtst 5, __RLSBError1, __RLSBResult1
3	5728	73		mov __RLSLastGoodRead1, __RLSReadBuf1
3	5729	75		jmp __RLSBDone1
3	5731	77		mov __RLSReadBuf1, __RLSLastGoodRead1
3	5733	79		arrsize __RLSBytesCount1, __RLSReadBuf1
3	5735	82		subret ____ReadLSBytes1_return
4	5747	0	#pragma macro 25
4	5747	0		acquire __CLSWMutex2
4	5747	1		set __CLSWArgs2.Port, 2
4	5747	4		mov __CLSWArgs2.ReturnLen, __RLSBytesCount2
4	5747	6		mov __CLSWArgs2.Buffer, __RLSReadBuf2
4	5747	8		syscall 21, __CLSWArgs2
4	5747	11		mov __RLSBResult2, __CLSWArgs2.Result
4	5747	13		release __CLSWMutex2
4	5747	14	#line 5747 "NXTDefs.h"
4	5748	14		brtst 4, __RLSBReturn2, __RLSBytesCount2
4	5749	17		arrinit __RLSReadBuf2, __constVal0, __RLSBytesCount2
4	5750	21		brtst 5, __RLSBError2, __RLSBResult2
4	5751	24		set __RLSBIterations2, 4
4	5753	27	#pragma macro 23
4	5753	27		acquire __CLSCSMutex2
4	5753	28		set __CLSCSArgs2.Port, 2
4	5753	31		syscall 23, __CLSCSArgs2
4	5753	34		mov __RLSBytesCount2, __CLSCSArgs2.BytesReady
4	5753	36		mov __RLSBResult2, __CLSCSArgs2.Result
4	5753	38		release __CLSCSMutex2
4	5753	39	#line 5753 "NXTDefs.h"
4	5754	39		sub __RLSBIterations2, __RLSBIterations2, __constVal1
4	5755	43		brtst 2, __RLSBError2, __RLSBIterations2
4	5756	46		brtst 0, __RLSBError2, __RLSBResult2
4	5757	49		brtst 4, __RLSBReadyToRead2, __RLSBResult2
4	5759	52		wait 15
4	5760	54		jmp __RLSBDoCheckStatus2
4	5763	56	#pragma macro 25
4	5763	56		acquire __CLSRMutex2
4	5763	57		set __CLSRArgs2.Port, 2
4	5763	60		mov __CLSRArgs2.BufferLen, __RLSBytesCount2
4	5763	62		syscall 22, __CLSRArgs2
4	5763	65		mov __RLSReadBuf2, __CLSRArgs2.Buffer
4	5763	67		mov __RLSBResult2, __CLSRArgs2.Result
4	5763	69		release __CLSRMutex2
4	5763	70	#line 5763 "NXTDefs.h"
4	5764	70		brtst 5, __RLSBError2, __RLSBResult2
4	5765	73		mov __RLSLastGoodRead2, __RLSReadBuf2
4	5766	75		jmp __RLSBDone2
4	5768	77		mov __RLSReadBuf2, __RLSLastGoodRead2
4	5770	79		arrsize __RLSBytesCount2, __RLSReadBuf2
4	5772	82		subret ____ReadLSBytes2_return
5	5821	0	#pragma macro 25
5	5821	0		acquire __CLSWMutex0
5	5821	1		acquire __CLSWMutex1
5	5821	2		acquire __CLSWMutex2
5	5821	3		acquire __CLSWMutex3
5	5821	4		mov __CLSWArgs0.Port, __RLSReadPort
5	5821	6		mov __CLSWArgs0.ReturnLen, __RLSBytesCountVar
5	5821	8		mov __CLSWArgs0.Buffer, __RLSReadBufVar
5	5821	10		syscall 21, __CLSWArgs0
5	5821	13		mov __RLSBResultVar, __CLSWArgs0.Result
5	5821	15		release __CLSWMutex0
5	5821	16		release __CLSWMutex1
5	5821	17		release __CLSWMutex2
5	5821	18		release __CLSWMutex3
5	5821	19	#line 5821 "NXTDefs.h"
5	5822	19		brtst 4, __RLSBReturnVar, __RLSBytesCountVar
5	5823	22		arrinit __RLSReadBufVar, __constVal0, __RLSBytesCountVar
5	5824	26		brtst 5, __RLSBErrorVar, __RLSBResultVar
5	5825	29		set __RLSBIterationsVar, 4
5	5827	32	#pragma macro 23
5	5827	32		acquire __CLSCSMutex0
5	5827	33		acquire __CLSCSMutex1
5	5827	34		acquire __CLSCSMutex2
5	5827	35		acquire __CLSCSMutex3
5	5827	36		mov __CLSCSArgs0.Port, __RLSReadPort
5	5827	38		syscall 23, __CLSCSArgs0
5	5827	41		mov __RLSBytesCountVar, __CLSCSArgs0.BytesReady
5	5827	43		mov __RLSBResultVar, __CLSCSArgs0.Result
5	5827	45		release __CLSCSMutex0
5	5827	46		release __CLSCSMutex1
5	5827	47		release __CLSCSMutex2
5	5827	48		release __CLSCSMutex3
5	5827	49	#line 5827 "NXTDefs.h"
5	5828	49		sub __RLSBIterationsVar, __RLSBIterationsVar, __constVal1
5	5829	53		brtst 2, __RLSBErrorVar, __RLSBIterationsVar
5	5830	56		brtst 0, __RLSBErrorVar, __RLSBResultVar
5	5831	59		brtst 4, __RLSBReadyToReadVar, __RLSBResultVar
5	5833	62		wait 15
5	5834	64		jmp __RLSBDoCheckStatusVar
5	5837	66	#pragma macro 25
5	5837	66		acquire __CLSRMutex0
5	5837	67		acquire __CLSRMutex1
5	5837	68		acquire __CLSRMutex2
5	5837	69		acquire __CLSRMutex3
5	5837	70		mov __CLSRArgs0.Port, __RLSReadPort
5	5837	72		mov __CLSRArgs0.BufferLen, __RLSBytesCountVar
5	5837	74		syscall 22, __CLSRArgs0
5	5837	77		mov __RLSReadBufVar, __CLSRArgs0.Buffer
5	5837	79		mov __RLSBResultVar, __CLSRArgs0.Result
5	5837	81		release __CLSRMutex0
5	5837	82		release __CLSRMutex1
5	5837	83		release __CLSRMutex2
5	5837	84		release __CLSRMutex3
5	5837	85	#line 5837 "NXTDefs.h"
5	5838	85		brtst 5, __RLSBErrorVar, __RLSBResultVar
5	5839	88		mov __RLSLastGoodReadVar, __RLSReadBufVar
5	5840	90		jmp __RLSBDoneVar
5	5842	92		mov __RLSReadBufVar, __RLSLastGoodReadVar
5	5844	94		arrsize __RLSBytesCountVar, __RLSReadBufVar
5	5846	97		subret ____ReadLSBytesVar_return
6	18	0	#line 18 "C:\Users\Mees\Documents\GitHub\NXT-voetbal\aanvaller.nxc"
6	19	0		arrbuild __HTEnhancedIRSeekerV2_7qG2_cmdBuf_7qG2_000, __constVal16, __constVal67
6	23	5	#line 23 "C:\Users\Mees\Documents\GitHub\NXT-voetbal\aanvaller.nxc"
6	24	5		set __HTEnhancedIRSeekerV2_7qG2_dir_7qG2_000, 0
6	23	8	#line 23 "C:\Users\Mees\Documents\GitHub\NXT-voetbal\aanvaller.nxc"
6	23	8	#line 23 "C:\Users\Mees\Documents\GitHub\NXT-voetbal\aanvaller.nxc"
6	24	8	#line 24 "C:\Users\Mees\Documents\GitHub\NXT-voetbal\aanvaller.nxc"
6	25	8		set __HTEnhancedIRSeekerV2_7qG2_strength_7qG2_000, 0
6	24	11	#line 24 "C:\Users\Mees\Documents\GitHub\NXT-voetbal\aanvaller.nxc"
6	24	11	#line 24 "C:\Users\Mees\Documents\GitHub\NXT-voetbal\aanvaller.nxc"
6	25	11	#line 25 "C:\Users\Mees\Documents\GitHub\NXT-voetbal\aanvaller.nxc"
6	26	11		set __HTEnhancedIRSeekerV2_7qG2_cResp_7qG2_000, 6
6	25	14	#line 25 "C:\Users\Mees\Documents\GitHub\NXT-voetbal\aanvaller.nxc"
6	25	14	#line 25 "C:\Users\Mees\Documents\GitHub\NXT-voetbal\aanvaller.nxc"
6	25	14	#line 25 "C:\Users\Mees\Documents\GitHub\NXT-voetbal\aanvaller.nxc"
6	26	14	#pragma macro 28
6	26	14		acquire __RLSBmutex0
6	26	15		acquire __RLSBmutex1
6	26	16		acquire __RLSBmutex2
6	26	17		acquire __RLSBmutex3
6	26	18		mov __RLSReadPort, __HTEnhancedIRSeekerV2_7qG2_port_7qG2_000
6	26	20		mov __RLSReadBufVar, __HTEnhancedIRSeekerV2_7qG2_cmdBuf_7qG2_000
6	26	22		mov __RLSBytesCountVar, __HTEnhancedIRSeekerV2_7qG2_cResp_7qG2_000
6	26	24		subcall __ReadLSBytesVar, ____ReadLSBytesVar_return
6	26	26		tst 4, __D0HTEnhancedIRSeekerV2, __RLSBResultVar
6	26	29		mov __HTEnhancedIRSeekerV2_7qG2_cResp_7qG2_000, __RLSBytesCountVar
6	26	31		mov __HTEnhancedIRSeekerV2_7qG2_respBuf_7qG2_000, __RLSReadBufVar
6	26	33		release __RLSBmutex0
6	26	34		release __RLSBmutex1
6	26	35		release __RLSBmutex2
6	26	36		release __RLSBmutex3
6	6553	37	#line 6553 "C:\Users\Mees\Documents\GitHub\NXT-voetbal\aanvaller.nxc"
6	25	37	#line 25 "C:\Users\Mees\Documents\GitHub\NXT-voetbal\aanvaller.nxc"
6	26	37		mov __HTEnhancedIRSeekerV2_7qG2_fSuccess_7qG2_000, __D0HTEnhancedIRSeekerV2
6	25	39	#line 25 "C:\Users\Mees\Documents\GitHub\NXT-voetbal\aanvaller.nxc"
6	25	39	#line 25 "C:\Users\Mees\Documents\GitHub\NXT-voetbal\aanvaller.nxc"
6	26	39	#line 26 "C:\Users\Mees\Documents\GitHub\NXT-voetbal\aanvaller.nxc"
6	27	39		mov __DU0HTEnhancedIRSeekerV2, __D0HTEnhancedIRSeekerV2
6	27	41	#line 27 "C:\Users\Mees\Documents\GitHub\NXT-voetbal\aanvaller.nxc"
6	28	41		tst 5, __zfHTEnhancedIRSeekerV2, __DU0HTEnhancedIRSeekerV2
6	27	44	#line 27 "C:\Users\Mees\Documents\GitHub\NXT-voetbal\aanvaller.nxc"
6	28	44		brtst 4, __NXC_Label_614, __zfHTEnhancedIRSeekerV2
6	28	47	#line 28 "C:\Users\Mees\Documents\GitHub\NXT-voetbal\aanvaller.nxc"
6	29	47		set __HTEnhancedIRSeekerV2_7qG2_iMax_7qG2_000, 0
6	28	50	#line 28 "C:\Users\Mees\Documents\GitHub\NXT-voetbal\aanvaller.nxc"
6	28	50	#line 28 "C:\Users\Mees\Documents\GitHub\NXT-voetbal\aanvaller.nxc"
6	28	50	#line 28 "C:\Users\Mees\Documents\GitHub\NXT-voetbal\aanvaller.nxc"
6	29	50		set __HTEnhancedIRSeekerV2_7qG2_i_7qG2_000, 1
6	28	53	#line 28 "C:\Users\Mees\Documents\GitHub\NXT-voetbal\aanvaller.nxc"
6	28	53	#line 28 "C:\Users\Mees\Documents\GitHub\NXT-voetbal\aanvaller.nxc"
6	29	53		mov __signed_stack_001HTEnhancedIRSeekerV2, __HTEnhancedIRSeekerV2_7qG2_i_7qG2_000
6	28	55	#line 28 "C:\Users\Mees\Documents\GitHub\NXT-voetbal\aanvaller.nxc"
6	28	55	#line 28 "C:\Users\Mees\Documents\GitHub\NXT-voetbal\aanvaller.nxc"
6	29	55		set __D0HTEnhancedIRSeekerV2, 5
6	28	58	#line 28 "C:\Users\Mees\Documents\GitHub\NXT-voetbal\aanvaller.nxc"
6	29	58		cmp 0, __zfHTEnhancedIRSeekerV2, __signed_stack_001HTEnhancedIRSeekerV2, __D0HTEnhancedIRSeekerV2
6	28	62	#line 28 "C:\Users\Mees\Documents\GitHub\NXT-voetbal\aanvaller.nxc"
6	29	62		mov __D0HTEnhancedIRSeekerV2, __zfHTEnhancedIRSeekerV2
6	28	64	#line 28 "C:\Users\Mees\Documents\GitHub\NXT-voetbal\aanvaller.nxc"
6	29	64		brtst 4, __NXC_Label_618, __zfHTEnhancedIRSeekerV2
6	28	67	#line 28 "C:\Users\Mees\Documents\GitHub\NXT-voetbal\aanvaller.nxc"
6	29	67		jmp __NXC_Label_619
6	28	69	#line 28 "C:\Users\Mees\Documents\GitHub\NXT-voetbal\aanvaller.nxc"
6	29	69		add __HTEnhancedIRSeekerV2_7qG2_i_7qG2_000, __HTEnhancedIRSeekerV2_7qG2_i_7qG2_000, __constVal1
6	28	73	#line 28 "C:\Users\Mees\Documents\GitHub\NXT-voetbal\aanvaller.nxc"
6	29	73		jmp __NXC_Label_617
6	28	75	#line 28 "C:\Users\Mees\Documents\GitHub\NXT-voetbal\aanvaller.nxc"
6	29	75		mov __signed_stack_001HTEnhancedIRSeekerV2, __HTEnhancedIRSeekerV2_7qG2_i_7qG2_000
6	28	77	#line 28 "C:\Users\Mees\Documents\GitHub\NXT-voetbal\aanvaller.nxc"
6	28	77	#line 28 "C:\Users\Mees\Documents\GitHub\NXT-voetbal\aanvaller.nxc"
6	29	77		index __ArrHelper__HTEnhancedIRSeekerV2_98_0, __HTEnhancedIRSeekerV2_7qG2_respBuf_7qG2_000, __signed_stack_001HTEnhancedIRSeekerV2
6	28	81	#line 28 "C:\Users\Mees\Documents\GitHub\NXT-voetbal\aanvaller.nxc"
6	29	81		mov __unsigned_stack_001HTEnhancedIRSeekerV2, __ArrHelper__HTEnhancedIRSeekerV2_98_0
6	28	83	#line 28 "C:\Users\Mees\Documents\GitHub\NXT-voetbal\aanvaller.nxc"
6	28	83	#line 28 "C:\Users\Mees\Documents\GitHub\NXT-voetbal\aanvaller.nxc"
6	29	83		mov __signed_stack_002HTEnhancedIRSeekerV2, __HTEnhancedIRSeekerV2_7qG2_iMax_7qG2_000
6	28	85	#line 28 "C:\Users\Mees\Documents\GitHub\NXT-voetbal\aanvaller.nxc"
6	28	85	#line 28 "C:\Users\Mees\Documents\GitHub\NXT-voetbal\aanvaller.nxc"
6	29	85		index __ArrHelper__HTEnhancedIRSeekerV2_98_0, __HTEnhancedIRSeekerV2_7qG2_respBuf_7qG2_000, __signed_stack_002HTEnhancedIRSeekerV2
6	28	89	#line 28 "C:\Users\Mees\Documents\GitHub\NXT-voetbal\aanvaller.nxc"
6	29	89		mov __DU0HTEnhancedIRSeekerV2, __ArrHelper__HTEnhancedIRSeekerV2_98_0
6	28	91	#line 28 "C:\Users\Mees\Documents\GitHub\NXT-voetbal\aanvaller.nxc"
6	29	91		cmp 1, __zfHTEnhancedIRSeekerV2, __unsigned_stack_001HTEnhancedIRSeekerV2, __DU0HTEnhancedIRSeekerV2
6	28	95	#line 28 "C:\Users\Mees\Documents\GitHub\NXT-voetbal\aanvaller.nxc"
6	29	95		mov __D0HTEnhancedIRSeekerV2, __zfHTEnhancedIRSeekerV2
6	28	97	#line 28 "C:\Users\Mees\Documents\GitHub\NXT-voetbal\aanvaller.nxc"
6	29	97		brtst 4, __NXC_Label_631, __zfHTEnhancedIRSeekerV2
6	29	100	#line 29 "C:\Users\Mees\Documents\GitHub\NXT-voetbal\aanvaller.nxc"
6	30	100		mov __HTEnhancedIRSeekerV2_7qG2_iMax_7qG2_000, __HTEnhancedIRSeekerV2_7qG2_i_7qG2_000
6	29	102	#line 29 "C:\Users\Mees\Documents\GitHub\NXT-voetbal\aanvaller.nxc"
6	29	102	#line 29 "C:\Users\Mees\Documents\GitHub\NXT-voetbal\aanvaller.nxc"
6	29	102	#line 29 "C:\Users\Mees\Documents\GitHub\NXT-voetbal\aanvaller.nxc"
6	29	102	#line 29 "C:\Users\Mees\Documents\GitHub\NXT-voetbal\aanvaller.nxc"
6	30	102		jmp __NXC_Label_620
6	29	104	#line 29 "C:\Users\Mees\Documents\GitHub\NXT-voetbal\aanvaller.nxc"
6	29	104	#line 29 "C:\Users\Mees\Documents\GitHub\NXT-voetbal\aanvaller.nxc"
6	29	104	#line 29 "C:\Users\Mees\Documents\GitHub\NXT-voetbal\aanvaller.nxc"
6	29	104	#line 29 "C:\Users\Mees\Documents\GitHub\NXT-voetbal\aanvaller.nxc"
6	29	104	#line 29 "C:\Users\Mees\Documents\GitHub\NXT-voetbal\aanvaller.nxc"
6	30	104		mul __signed_stack_001HTEnhancedIRSeekerV2, __HTEnhancedIRSeekerV2_7qG2_iMax_7qG2_000, __constVal2
6	29	108	#line 29 "C:\Users\Mees\Documents\GitHub\NXT-voetbal\aanvaller.nxc"
6	30	108	#line 30 "C:\Users\Mees\Documents\GitHub\NXT-voetbal\aanvaller.nxc"
6	30	108	#line 30 "C:\Users\Mees\Documents\GitHub\NXT-voetbal\aanvaller.nxc"
6	31	108		add __HTEnhancedIRSeekerV2_7qG2_dir_7qG2_000, __signed_stack_001HTEnhancedIRSeekerV2, __constVal1
6	30	112	#line 30 "C:\Users\Mees\Documents\GitHub\NXT-voetbal\aanvaller.nxc"
6	30	112	#line 30 "C:\Users\Mees\Documents\GitHub\NXT-voetbal\aanvaller.nxc"
6	30	112	#line 30 "C:\Users\Mees\Documents\GitHub\NXT-voetbal\aanvaller.nxc"
6	31	112		mov __signed_stack_001HTEnhancedIRSeekerV2, __HTEnhancedIRSeekerV2_7qG2_iMax_7qG2_000
6	30	114	#line 30 "C:\Users\Mees\Documents\GitHub\NXT-voetbal\aanvaller.nxc"
6	30	114	#line 30 "C:\Users\Mees\Documents\GitHub\NXT-voetbal\aanvaller.nxc"
6	31	114		index __ArrHelper__HTEnhancedIRSeekerV2_98_0, __HTEnhancedIRSeekerV2_7qG2_respBuf_7qG2_000, __signed_stack_001HTEnhancedIRSeekerV2
6	30	118	#line 30 "C:\Users\Mees\Documents\GitHub\NXT-voetbal\aanvaller.nxc"
6	31	118		mov __unsigned_stack_001HTEnhancedIRSeekerV2, __ArrHelper__HTEnhancedIRSeekerV2_98_0
6	30	120	#line 30 "C:\Users\Mees\Documents\GitHub\NXT-voetbal\aanvaller.nxc"
6	30	120	#line 30 "C:\Users\Mees\Documents\GitHub\NXT-voetbal\aanvaller.nxc"
6	31	120		set __signed_stack_002HTEnhancedIRSeekerV2, 5
6	30	123	#line 30 "C:\Users\Mees\Documents\GitHub\NXT-voetbal\aanvaller.nxc"
6	30	123	#line 30 "C:\Users\Mees\Documents\GitHub\NXT-voetbal\aanvaller.nxc"
6	31	123		index __ArrHelper__HTEnhancedIRSeekerV2_98_0, __HTEnhancedIRSeekerV2_7qG2_respBuf_7qG2_000, __signed_stack_002HTEnhancedIRSeekerV2
6	30	127	#line 30 "C:\Users\Mees\Documents\GitHub\NXT-voetbal\aanvaller.nxc"
6	31	127	#line 31 "C:\Users\Mees\Documents\GitHub\NXT-voetbal\aanvaller.nxc"
6	32	127		add __HTEnhancedIRSeekerV2_7qG2_dcSigSum_7qG2_000, __unsigned_stack_001HTEnhancedIRSeekerV2, __ArrHelper__HTEnhancedIRSeekerV2_98_0
6	31	131	#line 31 "C:\Users\Mees\Documents\GitHub\NXT-voetbal\aanvaller.nxc"
6	31	131	#line 31 "C:\Users\Mees\Documents\GitHub\NXT-voetbal\aanvaller.nxc"
6	31	131	#line 31 "C:\Users\Mees\Documents\GitHub\NXT-voetbal\aanvaller.nxc"
6	32	131		mov __signed_stack_001HTEnhancedIRSeekerV2, __HTEnhancedIRSeekerV2_7qG2_iMax_7qG2_000
6	31	133	#line 31 "C:\Users\Mees\Documents\GitHub\NXT-voetbal\aanvaller.nxc"
6	31	133	#line 31 "C:\Users\Mees\Documents\GitHub\NXT-voetbal\aanvaller.nxc"
6	32	133		set __D0HTEnhancedIRSeekerV2, 0
6	31	136	#line 31 "C:\Users\Mees\Documents\GitHub\NXT-voetbal\aanvaller.nxc"
6	32	136		cmp 1, __zfHTEnhancedIRSeekerV2, __signed_stack_001HTEnhancedIRSeekerV2, __D0HTEnhancedIRSeekerV2
6	31	140	#line 31 "C:\Users\Mees\Documents\GitHub\NXT-voetbal\aanvaller.nxc"
6	32	140		mov __D0HTEnhancedIRSeekerV2, __zfHTEnhancedIRSeekerV2
6	31	142	#line 31 "C:\Users\Mees\Documents\GitHub\NXT-voetbal\aanvaller.nxc"
6	32	142		brtst 4, __NXC_Label_643, __zfHTEnhancedIRSeekerV2
6	31	145	#line 31 "C:\Users\Mees\Documents\GitHub\NXT-voetbal\aanvaller.nxc"
6	32	145		mov __signed_stack_001HTEnhancedIRSeekerV2, __D0HTEnhancedIRSeekerV2
6	31	147	#line 31 "C:\Users\Mees\Documents\GitHub\NXT-voetbal\aanvaller.nxc"
6	31	147	#line 31 "C:\Users\Mees\Documents\GitHub\NXT-voetbal\aanvaller.nxc"
6	31	147	#line 31 "C:\Users\Mees\Documents\GitHub\NXT-voetbal\aanvaller.nxc"
6	31	147	#line 31 "C:\Users\Mees\Documents\GitHub\NXT-voetbal\aanvaller.nxc"
6	32	147		sub __signed_stack_002HTEnhancedIRSeekerV2, __HTEnhancedIRSeekerV2_7qG2_iMax_7qG2_000, __constVal1
6	31	151	#line 31 "C:\Users\Mees\Documents\GitHub\NXT-voetbal\aanvaller.nxc"
6	31	151	#line 31 "C:\Users\Mees\Documents\GitHub\NXT-voetbal\aanvaller.nxc"
6	32	151		index __ArrHelper__HTEnhancedIRSeekerV2_98_0, __HTEnhancedIRSeekerV2_7qG2_respBuf_7qG2_000, __signed_stack_002HTEnhancedIRSeekerV2
6	31	155	#line 31 "C:\Users\Mees\Documents\GitHub\NXT-voetbal\aanvaller.nxc"
6	32	155		mov __unsigned_stack_002HTEnhancedIRSeekerV2, __ArrHelper__HTEnhancedIRSeekerV2_98_0
6	31	157	#line 31 "C:\Users\Mees\Documents\GitHub\NXT-voetbal\aanvaller.nxc"
6	31	157	#line 31 "C:\Users\Mees\Documents\GitHub\NXT-voetbal\aanvaller.nxc"
6	32	157		mov __signed_stack_003HTEnhancedIRSeekerV2, __HTEnhancedIRSeekerV2_7qG2_iMax_7qG2_000
6	31	159	#line 31 "C:\Users\Mees\Documents\GitHub\NXT-voetbal\aanvaller.nxc"
6	31	159	#line 31 "C:\Users\Mees\Documents\GitHub\NXT-voetbal\aanvaller.nxc"
6	32	159		index __ArrHelper__HTEnhancedIRSeekerV2_98_0, __HTEnhancedIRSeekerV2_7qG2_respBuf_7qG2_000, __signed_stack_003HTEnhancedIRSeekerV2
6	31	163	#line 31 "C:\Users\Mees\Documents\GitHub\NXT-voetbal\aanvaller.nxc"
6	31	163	#line 31 "C:\Users\Mees\Documents\GitHub\NXT-voetbal\aanvaller.nxc"
6	31	163	#line 31 "C:\Users\Mees\Documents\GitHub\NXT-voetbal\aanvaller.nxc"
6	31	163	#line 31 "C:\Users\Mees\Documents\GitHub\NXT-voetbal\aanvaller.nxc"
6	32	163		div __D0HTEnhancedIRSeekerV2, __ArrHelper__HTEnhancedIRSeekerV2_98_0, __constVal2
6	31	167	#line 31 "C:\Users\Mees\Documents\GitHub\NXT-voetbal\aanvaller.nxc"
6	32	167		cmp 1, __zfHTEnhancedIRSeekerV2, __unsigned_stack_002HTEnhancedIRSeekerV2, __D0HTEnhancedIRSeekerV2
6	31	171	#line 31 "C:\Users\Mees\Documents\GitHub\NXT-voetbal\aanvaller.nxc"
6	31	171	#line 31 "C:\Users\Mees\Documents\GitHub\NXT-voetbal\aanvaller.nxc"
6	32	171		and __D0HTEnhancedIRSeekerV2, __signed_stack_001HTEnhancedIRSeekerV2, __zfHTEnhancedIRSeekerV2
6	32	175	#line 32 "C:\Users\Mees\Documents\GitHub\NXT-voetbal\aanvaller.nxc"
6	33	175		tst 5, __zfHTEnhancedIRSeekerV2, __D0HTEnhancedIRSeekerV2
6	32	178	#line 32 "C:\Users\Mees\Documents\GitHub\NXT-voetbal\aanvaller.nxc"
6	33	178		brtst 4, __NXC_Label_652, __zfHTEnhancedIRSeekerV2
6	33	181	#line 33 "C:\Users\Mees\Documents\GitHub\NXT-voetbal\aanvaller.nxc"
6	34	181		sub __HTEnhancedIRSeekerV2_7qG2_dir_7qG2_000, __HTEnhancedIRSeekerV2_7qG2_dir_7qG2_000, __constVal1
6	33	185	#line 33 "C:\Users\Mees\Documents\GitHub\NXT-voetbal\aanvaller.nxc"
6	33	185	#line 33 "C:\Users\Mees\Documents\GitHub\NXT-voetbal\aanvaller.nxc"
6	33	185	#line 33 "C:\Users\Mees\Documents\GitHub\NXT-voetbal\aanvaller.nxc"
6	33	185	#line 33 "C:\Users\Mees\Documents\GitHub\NXT-voetbal\aanvaller.nxc"
6	33	185	#line 33 "C:\Users\Mees\Documents\GitHub\NXT-voetbal\aanvaller.nxc"
6	34	185		sub __signed_stack_001HTEnhancedIRSeekerV2, __HTEnhancedIRSeekerV2_7qG2_iMax_7qG2_000, __constVal1
6	33	189	#line 33 "C:\Users\Mees\Documents\GitHub\NXT-voetbal\aanvaller.nxc"
6	33	189	#line 33 "C:\Users\Mees\Documents\GitHub\NXT-voetbal\aanvaller.nxc"
6	34	189		index __ArrHelper__HTEnhancedIRSeekerV2_98_0, __HTEnhancedIRSeekerV2_7qG2_respBuf_7qG2_000, __signed_stack_001HTEnhancedIRSeekerV2
6	33	193	#line 33 "C:\Users\Mees\Documents\GitHub\NXT-voetbal\aanvaller.nxc"
6	34	193	#line 34 "C:\Users\Mees\Documents\GitHub\NXT-voetbal\aanvaller.nxc"
6	35	193		add __HTEnhancedIRSeekerV2_7qG2_dcSigSum_7qG2_000, __HTEnhancedIRSeekerV2_7qG2_dcSigSum_7qG2_000, __ArrHelper__HTEnhancedIRSeekerV2_98_0
6	34	197	#line 34 "C:\Users\Mees\Documents\GitHub\NXT-voetbal\aanvaller.nxc"
6	35	197	#line 35 "C:\Users\Mees\Documents\GitHub\NXT-voetbal\aanvaller.nxc"
6	35	197	#line 35 "C:\Users\Mees\Documents\GitHub\NXT-voetbal\aanvaller.nxc"
6	36	197		mov __signed_stack_001HTEnhancedIRSeekerV2, __HTEnhancedIRSeekerV2_7qG2_iMax_7qG2_000
6	35	199	#line 35 "C:\Users\Mees\Documents\GitHub\NXT-voetbal\aanvaller.nxc"
6	35	199	#line 35 "C:\Users\Mees\Documents\GitHub\NXT-voetbal\aanvaller.nxc"
6	36	199		set __D0HTEnhancedIRSeekerV2, 4
6	35	202	#line 35 "C:\Users\Mees\Documents\GitHub\NXT-voetbal\aanvaller.nxc"
6	36	202		cmp 0, __zfHTEnhancedIRSeekerV2, __signed_stack_001HTEnhancedIRSeekerV2, __D0HTEnhancedIRSeekerV2
6	35	206	#line 35 "C:\Users\Mees\Documents\GitHub\NXT-voetbal\aanvaller.nxc"
6	36	206		mov __D0HTEnhancedIRSeekerV2, __zfHTEnhancedIRSeekerV2
6	35	208	#line 35 "C:\Users\Mees\Documents\GitHub\NXT-voetbal\aanvaller.nxc"
6	36	208		brtst 4, __NXC_Label_658, __zfHTEnhancedIRSeekerV2
6	35	211	#line 35 "C:\Users\Mees\Documents\GitHub\NXT-voetbal\aanvaller.nxc"
6	36	211		mov __signed_stack_001HTEnhancedIRSeekerV2, __D0HTEnhancedIRSeekerV2
6	35	213	#line 35 "C:\Users\Mees\Documents\GitHub\NXT-voetbal\aanvaller.nxc"
6	35	213	#line 35 "C:\Users\Mees\Documents\GitHub\NXT-voetbal\aanvaller.nxc"
6	35	213	#line 35 "C:\Users\Mees\Documents\GitHub\NXT-voetbal\aanvaller.nxc"
6	35	213	#line 35 "C:\Users\Mees\Documents\GitHub\NXT-voetbal\aanvaller.nxc"
6	36	213		add __signed_stack_002HTEnhancedIRSeekerV2, __HTEnhancedIRSeekerV2_7qG2_iMax_7qG2_000, __constVal1
6	35	217	#line 35 "C:\Users\Mees\Documents\GitHub\NXT-voetbal\aanvaller.nxc"
6	35	217	#line 35 "C:\Users\Mees\Documents\GitHub\NXT-voetbal\aanvaller.nxc"
6	36	217		index __ArrHelper__HTEnhancedIRSeekerV2_98_0, __HTEnhancedIRSeekerV2_7qG2_respBuf_7qG2_000, __signed_stack_002HTEnhancedIRSeekerV2
6	35	221	#line 35 "C:\Users\Mees\Documents\GitHub\NXT-voetbal\aanvaller.nxc"
6	36	221		mov __unsigned_stack_002HTEnhancedIRSeekerV2, __ArrHelper__HTEnhancedIRSeekerV2_98_0
6	35	223	#line 35 "C:\Users\Mees\Documents\GitHub\NXT-voetbal\aanvaller.nxc"
6	35	223	#line 35 "C:\Users\Mees\Documents\GitHub\NXT-voetbal\aanvaller.nxc"
6	36	223		mov __signed_stack_003HTEnhancedIRSeekerV2, __HTEnhancedIRSeekerV2_7qG2_iMax_7qG2_000
6	35	225	#line 35 "C:\Users\Mees\Documents\GitHub\NXT-voetbal\aanvaller.nxc"
6	35	225	#line 35 "C:\Users\Mees\Documents\GitHub\NXT-voetbal\aanvaller.nxc"
6	36	225		index __ArrHelper__HTEnhancedIRSeekerV2_98_0, __HTEnhancedIRSeekerV2_7qG2_respBuf_7qG2_000, __signed_stack_003HTEnhancedIRSeekerV2
6	35	229	#line 35 "C:\Users\Mees\Documents\GitHub\NXT-voetbal\aanvaller.nxc"
6	35	229	#line 35 "C:\Users\Mees\Documents\GitHub\NXT-voetbal\aanvaller.nxc"
6	35	229	#line 35 "C:\Users\Mees\Documents\GitHub\NXT-voetbal\aanvaller.nxc"
6	35	229	#line 35 "C:\Users\Mees\Documents\GitHub\NXT-voetbal\aanvaller.nxc"
6	36	229		div __D0HTEnhancedIRSeekerV2, __ArrHelper__HTEnhancedIRSeekerV2_98_0, __constVal2
6	35	233	#line 35 "C:\Users\Mees\Documents\GitHub\NXT-voetbal\aanvaller.nxc"
6	36	233		cmp 1, __zfHTEnhancedIRSeekerV2, __unsigned_stack_002HTEnhancedIRSeekerV2, __D0HTEnhancedIRSeekerV2
6	35	237	#line 35 "C:\Users\Mees\Documents\GitHub\NXT-voetbal\aanvaller.nxc"
6	35	237	#line 35 "C:\Users\Mees\Documents\GitHub\NXT-voetbal\aanvaller.nxc"
6	36	237		and __D0HTEnhancedIRSeekerV2, __signed_stack_001HTEnhancedIRSeekerV2, __zfHTEnhancedIRSeekerV2
6	36	241	#line 36 "C:\Users\Mees\Documents\GitHub\NXT-voetbal\aanvaller.nxc"
6	37	241		tst 5, __zfHTEnhancedIRSeekerV2, __D0HTEnhancedIRSeekerV2
6	36	244	#line 36 "C:\Users\Mees\Documents\GitHub\NXT-voetbal\aanvaller.nxc"
6	37	244		brtst 4, __NXC_Label_667, __zfHTEnhancedIRSeekerV2
6	37	247	#line 37 "C:\Users\Mees\Documents\GitHub\NXT-voetbal\aanvaller.nxc"
6	38	247		add __HTEnhancedIRSeekerV2_7qG2_dir_7qG2_000, __HTEnhancedIRSeekerV2_7qG2_dir_7qG2_000, __constVal1
6	37	251	#line 37 "C:\Users\Mees\Documents\GitHub\NXT-voetbal\aanvaller.nxc"
6	37	251	#line 37 "C:\Users\Mees\Documents\GitHub\NXT-voetbal\aanvaller.nxc"
6	37	251	#line 37 "C:\Users\Mees\Documents\GitHub\NXT-voetbal\aanvaller.nxc"
6	37	251	#line 37 "C:\Users\Mees\Documents\GitHub\NXT-voetbal\aanvaller.nxc"
6	37	251	#line 37 "C:\Users\Mees\Documents\GitHub\NXT-voetbal\aanvaller.nxc"
6	38	251		add __signed_stack_001HTEnhancedIRSeekerV2, __HTEnhancedIRSeekerV2_7qG2_iMax_7qG2_000, __constVal1
6	37	255	#line 37 "C:\Users\Mees\Documents\GitHub\NXT-voetbal\aanvaller.nxc"
6	37	255	#line 37 "C:\Users\Mees\Documents\GitHub\NXT-voetbal\aanvaller.nxc"
6	38	255		index __ArrHelper__HTEnhancedIRSeekerV2_98_0, __HTEnhancedIRSeekerV2_7qG2_respBuf_7qG2_000, __signed_stack_001HTEnhancedIRSeekerV2
6	37	259	#line 37 "C:\Users\Mees\Documents\GitHub\NXT-voetbal\aanvaller.nxc"
6	38	259	#line 38 "C:\Users\Mees\Documents\GitHub\NXT-voetbal\aanvaller.nxc"
6	39	259		add __HTEnhancedIRSeekerV2_7qG2_dcSigSum_7qG2_000, __HTEnhancedIRSeekerV2_7qG2_dcSigSum_7qG2_000, __ArrHelper__HTEnhancedIRSeekerV2_98_0
6	38	263	#line 38 "C:\Users\Mees\Documents\GitHub\NXT-voetbal\aanvaller.nxc"
6	39	263	#line 39 "C:\Users\Mees\Documents\GitHub\NXT-voetbal\aanvaller.nxc"
6	39	263	#line 39 "C:\Users\Mees\Documents\GitHub\NXT-voetbal\aanvaller.nxc"
6	39	263	#line 39 "C:\Users\Mees\Documents\GitHub\NXT-voetbal\aanvaller.nxc"
6	40	263		mul __HTEnhancedIRSeekerV2_7qG2_dcSigSum_7qG2_000, __HTEnhancedIRSeekerV2_7qG2_dcSigSum_7qG2_000, __constVal500
6	39	267	#line 39 "C:\Users\Mees\Documents\GitHub\NXT-voetbal\aanvaller.nxc"
6	40	267	#line 40 "C:\Users\Mees\Documents\GitHub\NXT-voetbal\aanvaller.nxc"
6	41	267		set __HTEnhancedIRSeekerV2_7qG2_dcStr_7qG2_000, 1
6	40	270	#line 40 "C:\Users\Mees\Documents\GitHub\NXT-voetbal\aanvaller.nxc"
6	40	270	#line 40 "C:\Users\Mees\Documents\GitHub\NXT-voetbal\aanvaller.nxc"
6	40	270	#line 40 "C:\Users\Mees\Documents\GitHub\NXT-voetbal\aanvaller.nxc"
6	41	270		set __signed_stack_001HTEnhancedIRSeekerV2, 10
6	40	273	#line 40 "C:\Users\Mees\Documents\GitHub\NXT-voetbal\aanvaller.nxc"
6	40	273	#line 40 "C:\Users\Mees\Documents\GitHub\NXT-voetbal\aanvaller.nxc"
6	41	273		sub __signed_stack_001HTEnhancedIRSeekerV2, __signed_stack_001HTEnhancedIRSeekerV2, __constVal1
6	40	277	#line 40 "C:\Users\Mees\Documents\GitHub\NXT-voetbal\aanvaller.nxc"
6	41	277		brtst 0, __NXC_Label_677, __signed_stack_001HTEnhancedIRSeekerV2
6	40	280	#line 40 "C:\Users\Mees\Documents\GitHub\NXT-voetbal\aanvaller.nxc"
6	40	280	#line 40 "C:\Users\Mees\Documents\GitHub\NXT-voetbal\aanvaller.nxc"
6	40	280	#line 40 "C:\Users\Mees\Documents\GitHub\NXT-voetbal\aanvaller.nxc"
6	40	280	#line 40 "C:\Users\Mees\Documents\GitHub\NXT-voetbal\aanvaller.nxc"
6	41	280		div __signed_stack_002HTEnhancedIRSeekerV2, __HTEnhancedIRSeekerV2_7qG2_dcSigSum_7qG2_000, __HTEnhancedIRSeekerV2_7qG2_dcStr_7qG2_000
6	40	284	#line 40 "C:\Users\Mees\Documents\GitHub\NXT-voetbal\aanvaller.nxc"
6	40	284	#line 40 "C:\Users\Mees\Documents\GitHub\NXT-voetbal\aanvaller.nxc"
6	40	284	#line 40 "C:\Users\Mees\Documents\GitHub\NXT-voetbal\aanvaller.nxc"
6	41	284		add __signed_stack_002HTEnhancedIRSeekerV2, __signed_stack_002HTEnhancedIRSeekerV2, __HTEnhancedIRSeekerV2_7qG2_dcStr_7qG2_000
6	40	288	#line 40 "C:\Users\Mees\Documents\GitHub\NXT-voetbal\aanvaller.nxc"
6	41	288	#line 41 "C:\Users\Mees\Documents\GitHub\NXT-voetbal\aanvaller.nxc"
6	41	288	#line 41 "C:\Users\Mees\Documents\GitHub\NXT-voetbal\aanvaller.nxc"
6	42	288		div __HTEnhancedIRSeekerV2_7qG2_dcStr_7qG2_000, __signed_stack_002HTEnhancedIRSeekerV2, __constVal2
6	41	292	#line 41 "C:\Users\Mees\Documents\GitHub\NXT-voetbal\aanvaller.nxc"
6	41	292	#line 41 "C:\Users\Mees\Documents\GitHub\NXT-voetbal\aanvaller.nxc"
6	41	292	#line 41 "C:\Users\Mees\Documents\GitHub\NXT-voetbal\aanvaller.nxc"
6	42	292		jmp __NXC_Label_676
6	41	294	#line 41 "C:\Users\Mees\Documents\GitHub\NXT-voetbal\aanvaller.nxc"
6	42	294	#line 42 "C:\Users\Mees\Documents\GitHub\NXT-voetbal\aanvaller.nxc"
6	43	294		mov __HTEnhancedIRSeekerV2_7qG2_strength_7qG2_000, __HTEnhancedIRSeekerV2_7qG2_dcStr_7qG2_000
6	42	296	#line 42 "C:\Users\Mees\Documents\GitHub\NXT-voetbal\aanvaller.nxc"
6	42	296	#line 42 "C:\Users\Mees\Documents\GitHub\NXT-voetbal\aanvaller.nxc"
6	42	296	#line 42 "C:\Users\Mees\Documents\GitHub\NXT-voetbal\aanvaller.nxc"
6	43	296		mov __signed_stack_001HTEnhancedIRSeekerV2, __HTEnhancedIRSeekerV2_7qG2_dcStr_7qG2_000
6	42	298	#line 42 "C:\Users\Mees\Documents\GitHub\NXT-voetbal\aanvaller.nxc"
6	42	298	#line 42 "C:\Users\Mees\Documents\GitHub\NXT-voetbal\aanvaller.nxc"
6	43	298		set __D0HTEnhancedIRSeekerV2, 200
6	42	301	#line 42 "C:\Users\Mees\Documents\GitHub\NXT-voetbal\aanvaller.nxc"
6	43	301		cmp 2, __zfHTEnhancedIRSeekerV2, __signed_stack_001HTEnhancedIRSeekerV2, __D0HTEnhancedIRSeekerV2
6	42	305	#line 42 "C:\Users\Mees\Documents\GitHub\NXT-voetbal\aanvaller.nxc"
6	43	305		mov __D0HTEnhancedIRSeekerV2, __zfHTEnhancedIRSeekerV2
6	43	307	#line 43 "C:\Users\Mees\Documents\GitHub\NXT-voetbal\aanvaller.nxc"
6	44	307		brtst 4, __NXC_Label_688, __zfHTEnhancedIRSeekerV2
6	43	310	#line 43 "C:\Users\Mees\Documents\GitHub\NXT-voetbal\aanvaller.nxc"
6	44	310		set __HTEnhancedIRSeekerV2_7qG2_dir_7qG2_000, 0
6	43	313	#line 43 "C:\Users\Mees\Documents\GitHub\NXT-voetbal\aanvaller.nxc"
6	43	313	#line 43 "C:\Users\Mees\Documents\GitHub\NXT-voetbal\aanvaller.nxc"
6	44	313	#line 44 "C:\Users\Mees\Documents\GitHub\NXT-voetbal\aanvaller.nxc"
6	45	313		set __HTEnhancedIRSeekerV2_7qG2_strength_7qG2_000, 0
6	44	316	#line 44 "C:\Users\Mees\Documents\GitHub\NXT-voetbal\aanvaller.nxc"
6	44	316	#line 44 "C:\Users\Mees\Documents\GitHub\NXT-voetbal\aanvaller.nxc"
6	44	316	#line 44 "C:\Users\Mees\Documents\GitHub\NXT-voetbal\aanvaller.nxc"
6	45	316		set __signed_stack_001HTEnhancedIRSeekerV2, 1
6	44	319	#line 44 "C:\Users\Mees\Documents\GitHub\NXT-voetbal\aanvaller.nxc"
6	45	319	#line 45 "C:\Users\Mees\Documents\GitHub\NXT-voetbal\aanvaller.nxc"
6	46	319		set __D0HTEnhancedIRSeekerV2, 73
6	45	322	#line 45 "C:\Users\Mees\Documents\GitHub\NXT-voetbal\aanvaller.nxc"
6	46	322		replace __HTEnhancedIRSeekerV2_7qG2_cmdBuf_7qG2_000, __HTEnhancedIRSeekerV2_7qG2_cmdBuf_7qG2_000, __signed_stack_001HTEnhancedIRSeekerV2, __D0HTEnhancedIRSeekerV2
6	45	327	#line 45 "C:\Users\Mees\Documents\GitHub\NXT-voetbal\aanvaller.nxc"
6	46	327	#line 46 "C:\Users\Mees\Documents\GitHub\NXT-voetbal\aanvaller.nxc"
6	47	327		set __HTEnhancedIRSeekerV2_7qG2_cResp_7qG2_000, 6
6	46	330	#line 46 "C:\Users\Mees\Documents\GitHub\NXT-voetbal\aanvaller.nxc"
6	46	330	#line 46 "C:\Users\Mees\Documents\GitHub\NXT-voetbal\aanvaller.nxc"
6	46	330	#line 46 "C:\Users\Mees\Documents\GitHub\NXT-voetbal\aanvaller.nxc"
6	47	330	#pragma macro 28
6	47	330		acquire __RLSBmutex0
6	47	331		acquire __RLSBmutex1
6	47	332		acquire __RLSBmutex2
6	47	333		acquire __RLSBmutex3
6	47	334		mov __RLSReadPort, __HTEnhancedIRSeekerV2_7qG2_port_7qG2_000
6	47	336		mov __RLSReadBufVar, __HTEnhancedIRSeekerV2_7qG2_cmdBuf_7qG2_000
6	47	338		mov __RLSBytesCountVar, __HTEnhancedIRSeekerV2_7qG2_cResp_7qG2_000
6	47	340		subcall __ReadLSBytesVar, ____ReadLSBytesVar_return
6	47	342		tst 4, __D0HTEnhancedIRSeekerV2, __RLSBResultVar
6	47	345		mov __HTEnhancedIRSeekerV2_7qG2_cResp_7qG2_000, __RLSBytesCountVar
6	47	347		mov __HTEnhancedIRSeekerV2_7qG2_respBuf_7qG2_000, __RLSReadBufVar
6	47	349		release __RLSBmutex0
6	47	350		release __RLSBmutex1
6	47	351		release __RLSBmutex2
6	47	352		release __RLSBmutex3
6	6987	353	#line 6987 "C:\Users\Mees\Documents\GitHub\NXT-voetbal\aanvaller.nxc"
6	46	353	#line 46 "C:\Users\Mees\Documents\GitHub\NXT-voetbal\aanvaller.nxc"
6	47	353		mov __HTEnhancedIRSeekerV2_7qG2_fSuccess_7qG2_000, __D0HTEnhancedIRSeekerV2
6	46	355	#line 46 "C:\Users\Mees\Documents\GitHub\NXT-voetbal\aanvaller.nxc"
6	46	355	#line 46 "C:\Users\Mees\Documents\GitHub\NXT-voetbal\aanvaller.nxc"
6	47	355	#line 47 "C:\Users\Mees\Documents\GitHub\NXT-voetbal\aanvaller.nxc"
6	48	355		mov __DU0HTEnhancedIRSeekerV2, __D0HTEnhancedIRSeekerV2
6	48	357	#line 48 "C:\Users\Mees\Documents\GitHub\NXT-voetbal\aanvaller.nxc"
6	49	357		tst 5, __zfHTEnhancedIRSeekerV2, __DU0HTEnhancedIRSeekerV2
6	48	360	#line 48 "C:\Users\Mees\Documents\GitHub\NXT-voetbal\aanvaller.nxc"
6	49	360		brtst 4, __NXC_Label_703, __zfHTEnhancedIRSeekerV2
6	48	363	#line 48 "C:\Users\Mees\Documents\GitHub\NXT-voetbal\aanvaller.nxc"
6	49	363		set __signed_stack_001HTEnhancedIRSeekerV2, 0
6	48	366	#line 48 "C:\Users\Mees\Documents\GitHub\NXT-voetbal\aanvaller.nxc"
6	48	366	#line 48 "C:\Users\Mees\Documents\GitHub\NXT-voetbal\aanvaller.nxc"
6	49	366		index __ArrHelper__HTEnhancedIRSeekerV2_98_0, __HTEnhancedIRSeekerV2_7qG2_respBuf_7qG2_000, __signed_stack_001HTEnhancedIRSeekerV2
6	48	370	#line 48 "C:\Users\Mees\Documents\GitHub\NXT-voetbal\aanvaller.nxc"
6	49	370		mov __HTEnhancedIRSeekerV2_7qG2_dir_7qG2_000, __ArrHelper__HTEnhancedIRSeekerV2_98_0
6	49	372	#line 49 "C:\Users\Mees\Documents\GitHub\NXT-voetbal\aanvaller.nxc"
6	49	372	#line 49 "C:\Users\Mees\Documents\GitHub\NXT-voetbal\aanvaller.nxc"
6	49	372	#line 49 "C:\Users\Mees\Documents\GitHub\NXT-voetbal\aanvaller.nxc"
6	50	372		mov __signed_stack_001HTEnhancedIRSeekerV2, __ArrHelper__HTEnhancedIRSeekerV2_98_0
6	49	374	#line 49 "C:\Users\Mees\Documents\GitHub\NXT-voetbal\aanvaller.nxc"
6	49	374	#line 49 "C:\Users\Mees\Documents\GitHub\NXT-voetbal\aanvaller.nxc"
6	50	374		set __D0HTEnhancedIRSeekerV2, 0
6	49	377	#line 49 "C:\Users\Mees\Documents\GitHub\NXT-voetbal\aanvaller.nxc"
6	50	377		cmp 1, __zfHTEnhancedIRSeekerV2, __signed_stack_001HTEnhancedIRSeekerV2, __D0HTEnhancedIRSeekerV2
6	49	381	#line 49 "C:\Users\Mees\Documents\GitHub\NXT-voetbal\aanvaller.nxc"
6	50	381		mov __D0HTEnhancedIRSeekerV2, __zfHTEnhancedIRSeekerV2
6	49	383	#line 49 "C:\Users\Mees\Documents\GitHub\NXT-voetbal\aanvaller.nxc"
6	50	383		brtst 4, __NXC_Label_710, __zfHTEnhancedIRSeekerV2
6	49	386	#line 49 "C:\Users\Mees\Documents\GitHub\NXT-voetbal\aanvaller.nxc"
6	50	386		set __HTEnhancedIRSeekerV2_7qG2_i_7qG2_000, 1
6	49	389	#line 49 "C:\Users\Mees\Documents\GitHub\NXT-voetbal\aanvaller.nxc"
6	49	389	#line 49 "C:\Users\Mees\Documents\GitHub\NXT-voetbal\aanvaller.nxc"
6	50	389		mov __signed_stack_001HTEnhancedIRSeekerV2, __HTEnhancedIRSeekerV2_7qG2_i_7qG2_000
6	49	391	#line 49 "C:\Users\Mees\Documents\GitHub\NXT-voetbal\aanvaller.nxc"
6	49	391	#line 49 "C:\Users\Mees\Documents\GitHub\NXT-voetbal\aanvaller.nxc"
6	50	391		set __D0HTEnhancedIRSeekerV2, 5
6	49	394	#line 49 "C:\Users\Mees\Documents\GitHub\NXT-voetbal\aanvaller.nxc"
6	50	394		cmp 2, __zfHTEnhancedIRSeekerV2, __signed_stack_001HTEnhancedIRSeekerV2, __D0HTEnhancedIRSeekerV2
6	49	398	#line 49 "C:\Users\Mees\Documents\GitHub\NXT-voetbal\aanvaller.nxc"
6	50	398		mov __D0HTEnhancedIRSeekerV2, __zfHTEnhancedIRSeekerV2
6	49	400	#line 49 "C:\Users\Mees\Documents\GitHub\NXT-voetbal\aanvaller.nxc"
6	50	400		brtst 4, __NXC_Label_712, __zfHTEnhancedIRSeekerV2
6	49	403	#line 49 "C:\Users\Mees\Documents\GitHub\NXT-voetbal\aanvaller.nxc"
6	50	403		jmp __NXC_Label_713
6	49	405	#line 49 "C:\Users\Mees\Documents\GitHub\NXT-voetbal\aanvaller.nxc"
6	50	405		add __HTEnhancedIRSeekerV2_7qG2_i_7qG2_000, __HTEnhancedIRSeekerV2_7qG2_i_7qG2_000, __constVal1
6	49	409	#line 49 "C:\Users\Mees\Documents\GitHub\NXT-voetbal\aanvaller.nxc"
6	50	409		jmp __NXC_Label_711
6	49	411	#line 49 "C:\Users\Mees\Documents\GitHub\NXT-voetbal\aanvaller.nxc"
6	50	411		mov __signed_stack_001HTEnhancedIRSeekerV2, __HTEnhancedIRSeekerV2_7qG2_i_7qG2_000
6	49	413	#line 49 "C:\Users\Mees\Documents\GitHub\NXT-voetbal\aanvaller.nxc"
6	49	413	#line 49 "C:\Users\Mees\Documents\GitHub\NXT-voetbal\aanvaller.nxc"
6	50	413		index __ArrHelper__HTEnhancedIRSeekerV2_98_0, __HTEnhancedIRSeekerV2_7qG2_respBuf_7qG2_000, __signed_stack_001HTEnhancedIRSeekerV2
6	49	417	#line 49 "C:\Users\Mees\Documents\GitHub\NXT-voetbal\aanvaller.nxc"
6	50	417	#line 50 "C:\Users\Mees\Documents\GitHub\NXT-voetbal\aanvaller.nxc"
6	51	417		add __HTEnhancedIRSeekerV2_7qG2_strength_7qG2_000, __HTEnhancedIRSeekerV2_7qG2_strength_7qG2_000, __ArrHelper__HTEnhancedIRSeekerV2_98_0
6	50	421	#line 50 "C:\Users\Mees\Documents\GitHub\NXT-voetbal\aanvaller.nxc"
6	50	421	#line 50 "C:\Users\Mees\Documents\GitHub\NXT-voetbal\aanvaller.nxc"
6	51	421		jmp __NXC_Label_714
6	50	423	#line 50 "C:\Users\Mees\Documents\GitHub\NXT-voetbal\aanvaller.nxc"
6	51	423	#line 51 "C:\Users\Mees\Documents\GitHub\NXT-voetbal\aanvaller.nxc"
6	52	423	#line 52 "C:\Users\Mees\Documents\GitHub\NXT-voetbal\aanvaller.nxc"
6	53	423	#line 53 "C:\Users\Mees\Documents\GitHub\NXT-voetbal\aanvaller.nxc"
6	58	423	#line 58 "C:\Users\Mees\Documents\GitHub\NXT-voetbal\aanvaller.nxc"
6	58	423	#line 58 "C:\Users\Mees\Documents\GitHub\NXT-voetbal\aanvaller.nxc"
6	59	423		subret __HTEnhancedIRSeekerV2_return
7	62	0	#line 62 "C:\Users\Mees\Documents\GitHub\NXT-voetbal\aanvaller.nxc"
7	63	0	#pragma macro 30
7	63	0		acquire __RLSBmutex1
7	63	1		mov __RLSReadBuf1, __RLSBbufLSWrite1
7	63	3		set __RLSBytesCount1, 2
7	63	6		subcall __ReadLSBytes1, ____ReadLSBytes1_return
7	63	8		index __D0compaswaarde, __RLSReadBuf1, 65535
7	63	12		index __RLSBytesCount1, __RLSReadBuf1, __constVal1
7	63	16		add __D0compaswaarde, __D0compaswaarde, __D0compaswaarde
7	63	20		add __D0compaswaarde, __D0compaswaarde, __RLSBytesCount1
7	63	24		release __RLSBmutex1
7	7097	25	#line 7097 "C:\Users\Mees\Documents\GitHub\NXT-voetbal\aanvaller.nxc"
7	62	25	#line 62 "C:\Users\Mees\Documents\GitHub\NXT-voetbal\aanvaller.nxc"
7	77	25	#line 77 "C:\Users\Mees\Documents\GitHub\NXT-voetbal\aanvaller.nxc"
7	77	25	#line 77 "C:\Users\Mees\Documents\GitHub\NXT-voetbal\aanvaller.nxc"
7	78	25		sub __D0compaswaarde, __D0compaswaarde, beginwaarde
7	77	29	#line 77 "C:\Users\Mees\Documents\GitHub\NXT-voetbal\aanvaller.nxc"
7	78	29		subret __compaswaarde_return
7	77	31	#line 77 "C:\Users\Mees\Documents\GitHub\NXT-voetbal\aanvaller.nxc"
7	77	31	#line 77 "C:\Users\Mees\Documents\GitHub\NXT-voetbal\aanvaller.nxc"
7	79	31	#line 79 "C:\Users\Mees\Documents\GitHub\NXT-voetbal\aanvaller.nxc"
7	80	31		subret __compaswaarde_return
8	82	0	#line 82 "C:\Users\Mees\Documents\GitHub\NXT-voetbal\aanvaller.nxc"
8	83	0	#pragma macro 7
8	83	0		setout __OUT_AC, 2, __constVal0, 1, __constVal3, 8, __constVal0, 6, __constVal32, 7, __constVal0, 5, __constVal0, 10, __constVal96, 11, __constVal32, 12, __constVal32, 0, __constVal63
8	7116	23	#line 7116 "C:\Users\Mees\Documents\GitHub\NXT-voetbal\aanvaller.nxc"
8	82	23	#line 82 "C:\Users\Mees\Documents\GitHub\NXT-voetbal\aanvaller.nxc"
8	82	23	#line 82 "C:\Users\Mees\Documents\GitHub\NXT-voetbal\aanvaller.nxc"
8	83	23		set __signed_stack_001kicken, 100
8	82	26	#line 82 "C:\Users\Mees\Documents\GitHub\NXT-voetbal\aanvaller.nxc"
8	82	26	#line 82 "C:\Users\Mees\Documents\GitHub\NXT-voetbal\aanvaller.nxc"
8	83	26		set __D0kicken, 30
8	83	29	#line 83 "C:\Users\Mees\Documents\GitHub\NXT-voetbal\aanvaller.nxc"
8	84	29	#pragma macro 33
8	84	29		arrbuild __rotate_ports1, __constVal1
8	84	33		mov __rotate_power1, __signed_stack_001kicken
8	84	35		mov __rotate_angle1, __D0kicken
8	84	37		mov __rotate_turnpct1, __constVal0
8	84	39		mov __rotate_sync1, __constVal0
8	84	41		mov __rotate_stop1, __constVal1
8	84	43		mov __rotate_theRVP1, __constVal32
8	84	45		mov __rotate_theRVI1, __constVal0
8	84	47		mov __rotate_theRVD1, __constVal96
8	84	49		subcall __RotateMotor1, ____RotateMotor1_return
8	7129	51	#line 7129 "C:\Users\Mees\Documents\GitHub\NXT-voetbal\aanvaller.nxc"
8	83	51	#line 83 "C:\Users\Mees\Documents\GitHub\NXT-voetbal\aanvaller.nxc"
8	83	51	#line 83 "C:\Users\Mees\Documents\GitHub\NXT-voetbal\aanvaller.nxc"
8	84	51		set __signed_stack_001kicken, -100
8	83	54	#line 83 "C:\Users\Mees\Documents\GitHub\NXT-voetbal\aanvaller.nxc"
8	83	54	#line 83 "C:\Users\Mees\Documents\GitHub\NXT-voetbal\aanvaller.nxc"
8	84	54		set __D0kicken, 30
8	91	57	#line 91 "C:\Users\Mees\Documents\GitHub\NXT-voetbal\aanvaller.nxc"
8	92	57	#pragma macro 33
8	92	57		arrbuild __rotate_ports1, __constVal1
8	92	61		mov __rotate_power1, __signed_stack_001kicken
8	92	63		mov __rotate_angle1, __D0kicken
8	92	65		mov __rotate_turnpct1, __constVal0
8	92	67		mov __rotate_sync1, __constVal0
8	92	69		mov __rotate_stop1, __constVal1
8	92	71		mov __rotate_theRVP1, __constVal32
8	92	73		mov __rotate_theRVI1, __constVal0
8	92	75		mov __rotate_theRVD1, __constVal96
8	92	77		subcall __RotateMotor1, ____RotateMotor1_return
8	7142	79	#line 7142 "C:\Users\Mees\Documents\GitHub\NXT-voetbal\aanvaller.nxc"
8	91	79	#line 91 "C:\Users\Mees\Documents\GitHub\NXT-voetbal\aanvaller.nxc"
8	93	79	#line 93 "C:\Users\Mees\Documents\GitHub\NXT-voetbal\aanvaller.nxc"
8	94	79		subret __kicken_return
9	95	0	#line 95 "C:\Users\Mees\Documents\GitHub\NXT-voetbal\aanvaller.nxc"
9	96	0		subcall compaswaarde, __compaswaarde_return
9	95	2	#line 95 "C:\Users\Mees\Documents\GitHub\NXT-voetbal\aanvaller.nxc"
9	96	2		mov __signed_stack_001richten, __D0compaswaarde
9	95	4	#line 95 "C:\Users\Mees\Documents\GitHub\NXT-voetbal\aanvaller.nxc"
9	96	4	#line 96 "C:\Users\Mees\Documents\GitHub\NXT-voetbal\aanvaller.nxc"
9	97	4		set __D0richten, 5
9	96	7	#line 96 "C:\Users\Mees\Documents\GitHub\NXT-voetbal\aanvaller.nxc"
9	97	7		cmp 1, __zfrichten, __signed_stack_001richten, __D0richten
9	96	11	#line 96 "C:\Users\Mees\Documents\GitHub\NXT-voetbal\aanvaller.nxc"
9	97	11		mov __D0richten, __zfrichten
9	97	13	#line 97 "C:\Users\Mees\Documents\GitHub\NXT-voetbal\aanvaller.nxc"
9	98	13		brtst 4, __NXC_Label_735, __zfrichten
9	97	16	#line 97 "C:\Users\Mees\Documents\GitHub\NXT-voetbal\aanvaller.nxc"
9	98	16		set __D0richten, 50
9	98	19	#line 98 "C:\Users\Mees\Documents\GitHub\NXT-voetbal\aanvaller.nxc"
9	99	19	#pragma macro 7
9	99	19		setout __constVal0, 2, __D0richten, 1, __constVal3, 8, __constVal0, 6, __constVal32, 7, __constVal0, 5, __constVal0, 10, __constVal96, 11, __constVal32, 12, __constVal32, 0, __constVal63
9	7170	42	#line 7170 "C:\Users\Mees\Documents\GitHub\NXT-voetbal\aanvaller.nxc"
9	98	42	#line 98 "C:\Users\Mees\Documents\GitHub\NXT-voetbal\aanvaller.nxc"
9	98	42	#line 98 "C:\Users\Mees\Documents\GitHub\NXT-voetbal\aanvaller.nxc"
9	99	42		set __D0richten, -50
9	99	45	#line 99 "C:\Users\Mees\Documents\GitHub\NXT-voetbal\aanvaller.nxc"
9	100	45	#pragma macro 7
9	100	45		setout __constVal2, 2, __D0richten, 1, __constVal3, 8, __constVal0, 6, __constVal32, 7, __constVal0, 5, __constVal0, 10, __constVal96, 11, __constVal32, 12, __constVal32, 0, __constVal63
9	7177	68	#line 7177 "C:\Users\Mees\Documents\GitHub\NXT-voetbal\aanvaller.nxc"
9	99	68	#line 99 "C:\Users\Mees\Documents\GitHub\NXT-voetbal\aanvaller.nxc"
9	100	68	#line 100 "C:\Users\Mees\Documents\GitHub\NXT-voetbal\aanvaller.nxc"
9	100	68	#line 100 "C:\Users\Mees\Documents\GitHub\NXT-voetbal\aanvaller.nxc"
9	101	68		subcall compaswaarde, __compaswaarde_return
9	100	70	#line 100 "C:\Users\Mees\Documents\GitHub\NXT-voetbal\aanvaller.nxc"
9	101	70		mov __signed_stack_001richten, __D0compaswaarde
9	100	72	#line 100 "C:\Users\Mees\Documents\GitHub\NXT-voetbal\aanvaller.nxc"
9	101	72	#line 101 "C:\Users\Mees\Documents\GitHub\NXT-voetbal\aanvaller.nxc"
9	102	72		set __D0richten, -5
9	101	75	#line 101 "C:\Users\Mees\Documents\GitHub\NXT-voetbal\aanvaller.nxc"
9	102	75		cmp 0, __zfrichten, __signed_stack_001richten, __D0richten
9	101	79	#line 101 "C:\Users\Mees\Documents\GitHub\NXT-voetbal\aanvaller.nxc"
9	102	79		mov __D0richten, __zfrichten
9	102	81	#line 102 "C:\Users\Mees\Documents\GitHub\NXT-voetbal\aanvaller.nxc"
9	103	81		brtst 4, __NXC_Label_742, __zfrichten
9	102	84	#line 102 "C:\Users\Mees\Documents\GitHub\NXT-voetbal\aanvaller.nxc"
9	103	84		set __D0richten, -50
9	103	87	#line 103 "C:\Users\Mees\Documents\GitHub\NXT-voetbal\aanvaller.nxc"
9	104	87	#pragma macro 7
9	104	87		setout __constVal0, 2, __D0richten, 1, __constVal3, 8, __constVal0, 6, __constVal32, 7, __constVal0, 5, __constVal0, 10, __constVal96, 11, __constVal32, 12, __constVal32, 0, __constVal63
9	7202	110	#line 7202 "C:\Users\Mees\Documents\GitHub\NXT-voetbal\aanvaller.nxc"
9	103	110	#line 103 "C:\Users\Mees\Documents\GitHub\NXT-voetbal\aanvaller.nxc"
9	103	110	#line 103 "C:\Users\Mees\Documents\GitHub\NXT-voetbal\aanvaller.nxc"
9	104	110		set __D0richten, 50
9	104	113	#line 104 "C:\Users\Mees\Documents\GitHub\NXT-voetbal\aanvaller.nxc"
9	105	113	#pragma macro 7
9	105	113		setout __constVal2, 2, __D0richten, 1, __constVal3, 8, __constVal0, 6, __constVal32, 7, __constVal0, 5, __constVal0, 10, __constVal96, 11, __constVal32, 12, __constVal32, 0, __constVal63
9	7209	136	#line 7209 "C:\Users\Mees\Documents\GitHub\NXT-voetbal\aanvaller.nxc"
9	104	136	#line 104 "C:\Users\Mees\Documents\GitHub\NXT-voetbal\aanvaller.nxc"
9	105	136	#line 105 "C:\Users\Mees\Documents\GitHub\NXT-voetbal\aanvaller.nxc"
9	105	136	#line 105 "C:\Users\Mees\Documents\GitHub\NXT-voetbal\aanvaller.nxc"
9	106	136		subcall compaswaarde, __compaswaarde_return
9	105	138	#line 105 "C:\Users\Mees\Documents\GitHub\NXT-voetbal\aanvaller.nxc"
9	106	138		mov __D0richten, __D0compaswaarde
9	105	140	#line 105 "C:\Users\Mees\Documents\GitHub\NXT-voetbal\aanvaller.nxc"
9	106	140		abs __signed_stack_001richten, __D0richten
9	105	143	#line 105 "C:\Users\Mees\Documents\GitHub\NXT-voetbal\aanvaller.nxc"
9	106	143	#line 106 "C:\Users\Mees\Documents\GitHub\NXT-voetbal\aanvaller.nxc"
9	107	143		set __D0richten, 5
9	106	146	#line 106 "C:\Users\Mees\Documents\GitHub\NXT-voetbal\aanvaller.nxc"
9	107	146		cmp 2, __zfrichten, __signed_stack_001richten, __D0richten
9	106	150	#line 106 "C:\Users\Mees\Documents\GitHub\NXT-voetbal\aanvaller.nxc"
9	107	150		mov __D0richten, __zfrichten
9	107	152	#line 107 "C:\Users\Mees\Documents\GitHub\NXT-voetbal\aanvaller.nxc"
9	108	152		brtst 4, __NXC_Label_751, __zfrichten
9	108	155	#line 108 "C:\Users\Mees\Documents\GitHub\NXT-voetbal\aanvaller.nxc"
9	109	155		subcall kicken, __kicken_return
9	108	157	#line 108 "C:\Users\Mees\Documents\GitHub\NXT-voetbal\aanvaller.nxc"
9	111	157	#line 111 "C:\Users\Mees\Documents\GitHub\NXT-voetbal\aanvaller.nxc"
9	111	157	#line 111 "C:\Users\Mees\Documents\GitHub\NXT-voetbal\aanvaller.nxc"
9	112	157		subret __richten_return
10	113	0	#line 113 "C:\Users\Mees\Documents\GitHub\NXT-voetbal\aanvaller.nxc"
10	114	0		mov __signed_stack_001Sturen, __Sturen_7qG2_richting_7qG2_000
10	113	2	#line 113 "C:\Users\Mees\Documents\GitHub\NXT-voetbal\aanvaller.nxc"
10	114	2	#line 114 "C:\Users\Mees\Documents\GitHub\NXT-voetbal\aanvaller.nxc"
10	115	2		set __D0Sturen, 5
10	114	5	#line 114 "C:\Users\Mees\Documents\GitHub\NXT-voetbal\aanvaller.nxc"
10	115	5		cmp 0, __zfSturen, __signed_stack_001Sturen, __D0Sturen
10	114	9	#line 114 "C:\Users\Mees\Documents\GitHub\NXT-voetbal\aanvaller.nxc"
10	115	9		mov __D0Sturen, __zfSturen
10	115	11	#line 115 "C:\Users\Mees\Documents\GitHub\NXT-voetbal\aanvaller.nxc"
10	116	11		brtst 4, __NXC_Label_754, __zfSturen
10	115	14	#line 115 "C:\Users\Mees\Documents\GitHub\NXT-voetbal\aanvaller.nxc"
10	116	14		set __D0Sturen, 50
10	116	17	#line 116 "C:\Users\Mees\Documents\GitHub\NXT-voetbal\aanvaller.nxc"
10	117	17	#pragma macro 7
10	117	17		setout __constVal0, 2, __D0Sturen, 1, __constVal3, 8, __constVal0, 6, __constVal32, 7, __constVal0, 5, __constVal0, 10, __constVal96, 11, __constVal32, 12, __constVal32, 0, __constVal63
10	7270	40	#line 7270 "C:\Users\Mees\Documents\GitHub\NXT-voetbal\aanvaller.nxc"
10	116	40	#line 116 "C:\Users\Mees\Documents\GitHub\NXT-voetbal\aanvaller.nxc"
10	116	40	#line 116 "C:\Users\Mees\Documents\GitHub\NXT-voetbal\aanvaller.nxc"
10	117	40		set __D0Sturen, -50
10	117	43	#line 117 "C:\Users\Mees\Documents\GitHub\NXT-voetbal\aanvaller.nxc"
10	118	43	#pragma macro 7
10	118	43		setout __constVal2, 2, __D0Sturen, 1, __constVal3, 8, __constVal0, 6, __constVal32, 7, __constVal0, 5, __constVal0, 10, __constVal96, 11, __constVal32, 12, __constVal32, 0, __constVal63
10	7277	66	#line 7277 "C:\Users\Mees\Documents\GitHub\NXT-voetbal\aanvaller.nxc"
10	117	66	#line 117 "C:\Users\Mees\Documents\GitHub\NXT-voetbal\aanvaller.nxc"
10	118	66	#line 118 "C:\Users\Mees\Documents\GitHub\NXT-voetbal\aanvaller.nxc"
10	118	66	#line 118 "C:\Users\Mees\Documents\GitHub\NXT-voetbal\aanvaller.nxc"
10	119	66		mov __signed_stack_001Sturen, __Sturen_7qG2_richting_7qG2_000
10	118	68	#line 118 "C:\Users\Mees\Documents\GitHub\NXT-voetbal\aanvaller.nxc"
10	119	68	#line 119 "C:\Users\Mees\Documents\GitHub\NXT-voetbal\aanvaller.nxc"
10	120	68		set __D0Sturen, 5
10	119	71	#line 119 "C:\Users\Mees\Documents\GitHub\NXT-voetbal\aanvaller.nxc"
10	120	71		cmp 1, __zfSturen, __signed_stack_001Sturen, __D0Sturen
10	119	75	#line 119 "C:\Users\Mees\Documents\GitHub\NXT-voetbal\aanvaller.nxc"
10	120	75		mov __D0Sturen, __zfSturen
10	120	77	#line 120 "C:\Users\Mees\Documents\GitHub\NXT-voetbal\aanvaller.nxc"
10	121	77		brtst 4, __NXC_Label_761, __zfSturen
10	120	80	#line 120 "C:\Users\Mees\Documents\GitHub\NXT-voetbal\aanvaller.nxc"
10	121	80		set __D0Sturen, -50
10	121	83	#line 121 "C:\Users\Mees\Documents\GitHub\NXT-voetbal\aanvaller.nxc"
10	122	83	#pragma macro 7
10	122	83		setout __constVal0, 2, __D0Sturen, 1, __constVal3, 8, __constVal0, 6, __constVal32, 7, __constVal0, 5, __constVal0, 10, __constVal96, 11, __constVal32, 12, __constVal32, 0, __constVal63
10	7300	106	#line 7300 "C:\Users\Mees\Documents\GitHub\NXT-voetbal\aanvaller.nxc"
10	121	106	#line 121 "C:\Users\Mees\Documents\GitHub\NXT-voetbal\aanvaller.nxc"
10	121	106	#line 121 "C:\Users\Mees\Documents\GitHub\NXT-voetbal\aanvaller.nxc"
10	122	106		set __D0Sturen, 50
10	122	109	#line 122 "C:\Users\Mees\Documents\GitHub\NXT-voetbal\aanvaller.nxc"
10	123	109	#pragma macro 7
10	123	109		setout __constVal2, 2, __D0Sturen, 1, __constVal3, 8, __constVal0, 6, __constVal32, 7, __constVal0, 5, __constVal0, 10, __constVal96, 11, __constVal32, 12, __constVal32, 0, __constVal63
10	7307	132	#line 7307 "C:\Users\Mees\Documents\GitHub\NXT-voetbal\aanvaller.nxc"
10	122	132	#line 122 "C:\Users\Mees\Documents\GitHub\NXT-voetbal\aanvaller.nxc"
10	123	132	#line 123 "C:\Users\Mees\Documents\GitHub\NXT-voetbal\aanvaller.nxc"
10	123	132	#line 123 "C:\Users\Mees\Documents\GitHub\NXT-voetbal\aanvaller.nxc"
10	124	132		mov __signed_stack_001Sturen, __Sturen_7qG2_richting_7qG2_000
10	123	134	#line 123 "C:\Users\Mees\Documents\GitHub\NXT-voetbal\aanvaller.nxc"
10	124	134	#line 124 "C:\Users\Mees\Documents\GitHub\NXT-voetbal\aanvaller.nxc"
10	125	134		set __D0Sturen, 5
10	124	137	#line 124 "C:\Users\Mees\Documents\GitHub\NXT-voetbal\aanvaller.nxc"
10	125	137		cmp 4, __zfSturen, __signed_stack_001Sturen, __D0Sturen
10	124	141	#line 124 "C:\Users\Mees\Documents\GitHub\NXT-voetbal\aanvaller.nxc"
10	125	141		mov __D0Sturen, __zfSturen
10	125	143	#line 125 "C:\Users\Mees\Documents\GitHub\NXT-voetbal\aanvaller.nxc"
10	126	143		brtst 4, __NXC_Label_768, __zfSturen
10	125	146	#line 125 "C:\Users\Mees\Documents\GitHub\NXT-voetbal\aanvaller.nxc"
10	125	146	#line 125 "C:\Users\Mees\Documents\GitHub\NXT-voetbal\aanvaller.nxc"
10	7921	146	#line 7921 "NXCDefs.h"
10	7922	146		wait 300
10	7921	148	#line 7921 "NXCDefs.h"
10	126	148	#line 126 "C:\Users\Mees\Documents\GitHub\NXT-voetbal\aanvaller.nxc"
10	126	148	#line 126 "C:\Users\Mees\Documents\GitHub\NXT-voetbal\aanvaller.nxc"
10	127	148		set __signed_stack_001Sturen, -70
10	126	151	#line 126 "C:\Users\Mees\Documents\GitHub\NXT-voetbal\aanvaller.nxc"
10	126	151	#line 126 "C:\Users\Mees\Documents\GitHub\NXT-voetbal\aanvaller.nxc"
10	127	151		set __D0Sturen, 0
10	127	154	#line 127 "C:\Users\Mees\Documents\GitHub\NXT-voetbal\aanvaller.nxc"
10	128	154	#pragma macro 7
10	128	154		setout __OUT_AC, 2, __signed_stack_001Sturen, 1, __constVal7, 8, __constVal2, 7, __D0Sturen, 6, __constVal32, 5, __constVal0, 10, __constVal96, 11, __constVal32, 12, __constVal32, 0, __constVal63
10	7350	177	#line 7350 "C:\Users\Mees\Documents\GitHub\NXT-voetbal\aanvaller.nxc"
10	127	177	#line 127 "C:\Users\Mees\Documents\GitHub\NXT-voetbal\aanvaller.nxc"
10	130	177	#line 130 "C:\Users\Mees\Documents\GitHub\NXT-voetbal\aanvaller.nxc"
10	130	177	#line 130 "C:\Users\Mees\Documents\GitHub\NXT-voetbal\aanvaller.nxc"
10	131	177		subret __Sturen_return
11	132	0	#line 132 "C:\Users\Mees\Documents\GitHub\NXT-voetbal\aanvaller.nxc"
11	133	0		set __signed_stack_001ZijLijn, 5
11	132	3	#line 132 "C:\Users\Mees\Documents\GitHub\NXT-voetbal\aanvaller.nxc"
11	132	3	#line 132 "C:\Users\Mees\Documents\GitHub\NXT-voetbal\aanvaller.nxc"
11	133	3		set __signed_stack_002ZijLijn, 8
11	132	6	#line 132 "C:\Users\Mees\Documents\GitHub\NXT-voetbal\aanvaller.nxc"
11	132	6	#line 132 "C:\Users\Mees\Documents\GitHub\NXT-voetbal\aanvaller.nxc"
11	133	6		strcat __strbufZijLijn, __constStr0009
11	133	10	#line 133 "C:\Users\Mees\Documents\GitHub\NXT-voetbal\aanvaller.nxc"
11	134	10		acquire __TextOutMutex
11	133	11	#line 133 "C:\Users\Mees\Documents\GitHub\NXT-voetbal\aanvaller.nxc"
11	134	11		mov __TextOutArgs.Location.X, __signed_stack_001ZijLijn
11	133	13	#line 133 "C:\Users\Mees\Documents\GitHub\NXT-voetbal\aanvaller.nxc"
11	134	13		mov __TextOutArgs.Location.Y, __signed_stack_002ZijLijn
11	133	15	#line 133 "C:\Users\Mees\Documents\GitHub\NXT-voetbal\aanvaller.nxc"
11	134	15		set __TextOutArgs.Options, 0
11	133	18	#line 133 "C:\Users\Mees\Documents\GitHub\NXT-voetbal\aanvaller.nxc"
11	134	18		mov __TextOutArgs.Text, __strbufZijLijn
11	133	20	#line 133 "C:\Users\Mees\Documents\GitHub\NXT-voetbal\aanvaller.nxc"
11	134	20		syscall 13, __TextOutArgs
11	133	23	#line 133 "C:\Users\Mees\Documents\GitHub\NXT-voetbal\aanvaller.nxc"
11	134	23		mov __D0ZijLijn, __TextOutArgs.Result
11	133	25	#line 133 "C:\Users\Mees\Documents\GitHub\NXT-voetbal\aanvaller.nxc"
11	134	25		release __TextOutMutex
11	133	26	#line 133 "C:\Users\Mees\Documents\GitHub\NXT-voetbal\aanvaller.nxc"
11	133	26	#line 133 "C:\Users\Mees\Documents\GitHub\NXT-voetbal\aanvaller.nxc"
11	134	26	#pragma macro 26
11	134	26		acquire __RLSBmutex2
11	134	27		mov __RLSReadBuf2, __RLSBbufLSWrite1
11	134	29		set __RLSBytesCount2, 1
11	134	32		wait 15
11	134	34		subcall __ReadLSBytes2, ____ReadLSBytes2_return
11	134	36		index __D0ZijLijn, __RLSReadBuf2, 65535
11	134	40		release __RLSBmutex2
11	7391	41	#line 7391 "C:\Users\Mees\Documents\GitHub\NXT-voetbal\aanvaller.nxc"
11	133	41	#line 133 "C:\Users\Mees\Documents\GitHub\NXT-voetbal\aanvaller.nxc"
11	134	41		mov __signed_stack_001ZijLijn, __D0ZijLijn
11	133	43	#line 133 "C:\Users\Mees\Documents\GitHub\NXT-voetbal\aanvaller.nxc"
11	134	43		set __D0ZijLijn, 50
11	133	46	#line 133 "C:\Users\Mees\Documents\GitHub\NXT-voetbal\aanvaller.nxc"
11	134	46		cmp 0, __zfZijLijn, __signed_stack_001ZijLijn, __D0ZijLijn
11	133	50	#line 133 "C:\Users\Mees\Documents\GitHub\NXT-voetbal\aanvaller.nxc"
11	134	50		mov __D0ZijLijn, __zfZijLijn
11	134	52	#line 134 "C:\Users\Mees\Documents\GitHub\NXT-voetbal\aanvaller.nxc"
11	135	52		brtst 4, __NXC_Label_781, __zfZijLijn
11	134	55	#line 134 "C:\Users\Mees\Documents\GitHub\NXT-voetbal\aanvaller.nxc"
11	135	55		set __D0ZijLijn, -40
11	135	58	#line 135 "C:\Users\Mees\Documents\GitHub\NXT-voetbal\aanvaller.nxc"
11	136	58	#pragma macro 7
11	136	58		setout __constVal2, 2, __D0ZijLijn, 1, __constVal3, 8, __constVal0, 6, __constVal32, 7, __constVal0, 5, __constVal0, 10, __constVal96, 11, __constVal32, 12, __constVal32, 0, __constVal63
11	7409	81	#line 7409 "C:\Users\Mees\Documents\GitHub\NXT-voetbal\aanvaller.nxc"
11	135	81	#line 135 "C:\Users\Mees\Documents\GitHub\NXT-voetbal\aanvaller.nxc"
11	135	81	#line 135 "C:\Users\Mees\Documents\GitHub\NXT-voetbal\aanvaller.nxc"
11	136	81		set __D0ZijLijn, 40
11	136	84	#line 136 "C:\Users\Mees\Documents\GitHub\NXT-voetbal\aanvaller.nxc"
11	137	84	#pragma macro 7
11	137	84		setout __constVal0, 2, __D0ZijLijn, 1, __constVal3, 8, __constVal0, 6, __constVal32, 7, __constVal0, 5, __constVal0, 10, __constVal96, 11, __constVal32, 12, __constVal32, 0, __constVal63
11	7416	107	#line 7416 "C:\Users\Mees\Documents\GitHub\NXT-voetbal\aanvaller.nxc"
11	136	107	#line 136 "C:\Users\Mees\Documents\GitHub\NXT-voetbal\aanvaller.nxc"
11	136	107	#line 136 "C:\Users\Mees\Documents\GitHub\NXT-voetbal\aanvaller.nxc"
11	137	107		subcall compaswaarde, __compaswaarde_return
11	136	109	#line 136 "C:\Users\Mees\Documents\GitHub\NXT-voetbal\aanvaller.nxc"
11	137	109		mov __D0ZijLijn, __D0compaswaarde
11	136	111	#line 136 "C:\Users\Mees\Documents\GitHub\NXT-voetbal\aanvaller.nxc"
11	137	111		abs __signed_stack_001ZijLijn, __D0ZijLijn
11	136	114	#line 136 "C:\Users\Mees\Documents\GitHub\NXT-voetbal\aanvaller.nxc"
11	136	114	#line 136 "C:\Users\Mees\Documents\GitHub\NXT-voetbal\aanvaller.nxc"
11	137	114		set __D0ZijLijn, 5
11	136	117	#line 136 "C:\Users\Mees\Documents\GitHub\NXT-voetbal\aanvaller.nxc"
11	137	117		cmp 0, __zfZijLijn, __signed_stack_001ZijLijn, __D0ZijLijn
11	136	121	#line 136 "C:\Users\Mees\Documents\GitHub\NXT-voetbal\aanvaller.nxc"
11	136	121	#line 136 "C:\Users\Mees\Documents\GitHub\NXT-voetbal\aanvaller.nxc"
11	137	121		not __D0ZijLijn, __zfZijLijn
11	137	124	#line 137 "C:\Users\Mees\Documents\GitHub\NXT-voetbal\aanvaller.nxc"
11	138	124		tst 5, __zfZijLijn, __D0ZijLijn
11	137	127	#line 137 "C:\Users\Mees\Documents\GitHub\NXT-voetbal\aanvaller.nxc"
11	138	127		brtst 4, __NXC_Label_787, __zfZijLijn
11	137	130	#line 137 "C:\Users\Mees\Documents\GitHub\NXT-voetbal\aanvaller.nxc"
11	137	130	#line 137 "C:\Users\Mees\Documents\GitHub\NXT-voetbal\aanvaller.nxc"
11	138	130		jmp __NXC_Label_786
11	137	132	#line 137 "C:\Users\Mees\Documents\GitHub\NXT-voetbal\aanvaller.nxc"
11	137	132	#line 137 "C:\Users\Mees\Documents\GitHub\NXT-voetbal\aanvaller.nxc"
11	138	132		set __Wait_7qG2_ms_7qG2_000_inline_ZijLijn, 500
11	137	135	#line 137 "C:\Users\Mees\Documents\GitHub\NXT-voetbal\aanvaller.nxc"
11	7921	135	#line 7921 "NXCDefs.h"
11	7922	135		wait 500
11	7921	137	#line 7921 "NXCDefs.h"
11	138	137	#line 138 "C:\Users\Mees\Documents\GitHub\NXT-voetbal\aanvaller.nxc"
11	138	137	#line 138 "C:\Users\Mees\Documents\GitHub\NXT-voetbal\aanvaller.nxc"
11	139	137		set __D0ZijLijn, -100
11	139	140	#line 139 "C:\Users\Mees\Documents\GitHub\NXT-voetbal\aanvaller.nxc"
11	140	140	#pragma macro 7
11	140	140		setout __OUT_AC, 2, __D0ZijLijn, 1, __constVal3, 8, __constVal0, 6, __constVal32, 7, __constVal0, 5, __constVal0, 10, __constVal96, 11, __constVal32, 12, __constVal32, 0, __constVal63
11	7469	163	#line 7469 "C:\Users\Mees\Documents\GitHub\NXT-voetbal\aanvaller.nxc"
11	139	163	#line 139 "C:\Users\Mees\Documents\GitHub\NXT-voetbal\aanvaller.nxc"
11	139	163	#line 139 "C:\Users\Mees\Documents\GitHub\NXT-voetbal\aanvaller.nxc"
11	140	163		set __Wait_7qG2_ms_7qG2_000_inline_ZijLijn, 500
11	139	166	#line 139 "C:\Users\Mees\Documents\GitHub\NXT-voetbal\aanvaller.nxc"
11	7921	166	#line 7921 "NXCDefs.h"
11	7922	166		wait 500
11	7921	168	#line 7921 "NXCDefs.h"
11	140	168	#line 140 "C:\Users\Mees\Documents\GitHub\NXT-voetbal\aanvaller.nxc"
11	141	168	#line 141 "C:\Users\Mees\Documents\GitHub\NXT-voetbal\aanvaller.nxc"
11	142	168	#pragma macro 7
11	142	168		setout __OUT_AC, 2, __constVal0, 1, __constVal3, 8, __constVal0, 6, __constVal32, 7, __constVal0, 5, __constVal0, 10, __constVal96, 11, __constVal32, 12, __constVal32, 0, __constVal63
11	7482	191	#line 7482 "C:\Users\Mees\Documents\GitHub\NXT-voetbal\aanvaller.nxc"
11	141	191	#line 141 "C:\Users\Mees\Documents\GitHub\NXT-voetbal\aanvaller.nxc"
11	142	191	#line 142 "C:\Users\Mees\Documents\GitHub\NXT-voetbal\aanvaller.nxc"
11	143	191		jmp __NXC_Label_800
11	142	193	#line 142 "C:\Users\Mees\Documents\GitHub\NXT-voetbal\aanvaller.nxc"
11	143	193	#pragma macro 26
11	143	193		acquire __RLSBmutex2
11	143	194		mov __RLSReadBuf2, __RLSBbufLSWrite1
11	143	196		set __RLSBytesCount2, 1
11	143	199		wait 15
11	143	201		subcall __ReadLSBytes2, ____ReadLSBytes2_return
11	143	203		index __D0ZijLijn, __RLSReadBuf2, 65535
11	143	207		release __RLSBmutex2
11	7488	208	#line 7488 "C:\Users\Mees\Documents\GitHub\NXT-voetbal\aanvaller.nxc"
11	142	208	#line 142 "C:\Users\Mees\Documents\GitHub\NXT-voetbal\aanvaller.nxc"
11	143	208		mov __signed_stack_001ZijLijn, __D0ZijLijn
11	142	210	#line 142 "C:\Users\Mees\Documents\GitHub\NXT-voetbal\aanvaller.nxc"
11	143	210		set __D0ZijLijn, 50
11	142	213	#line 142 "C:\Users\Mees\Documents\GitHub\NXT-voetbal\aanvaller.nxc"
11	143	213		cmp 1, __zfZijLijn, __signed_stack_001ZijLijn, __D0ZijLijn
11	142	217	#line 142 "C:\Users\Mees\Documents\GitHub\NXT-voetbal\aanvaller.nxc"
11	143	217		mov __D0ZijLijn, __zfZijLijn
11	143	219	#line 143 "C:\Users\Mees\Documents\GitHub\NXT-voetbal\aanvaller.nxc"
11	144	219		brtst 4, __NXC_Label_803, __zfZijLijn
11	143	222	#line 143 "C:\Users\Mees\Documents\GitHub\NXT-voetbal\aanvaller.nxc"
11	144	222		set __D0ZijLijn, -40
11	144	225	#line 144 "C:\Users\Mees\Documents\GitHub\NXT-voetbal\aanvaller.nxc"
11	145	225	#pragma macro 7
11	145	225		setout __constVal0, 2, __D0ZijLijn, 1, __constVal3, 8, __constVal0, 6, __constVal32, 7, __constVal0, 5, __constVal0, 10, __constVal96, 11, __constVal32, 12, __constVal32, 0, __constVal63
11	7506	248	#line 7506 "C:\Users\Mees\Documents\GitHub\NXT-voetbal\aanvaller.nxc"
11	144	248	#line 144 "C:\Users\Mees\Documents\GitHub\NXT-voetbal\aanvaller.nxc"
11	144	248	#line 144 "C:\Users\Mees\Documents\GitHub\NXT-voetbal\aanvaller.nxc"
11	145	248		set __D0ZijLijn, 40
11	145	251	#line 145 "C:\Users\Mees\Documents\GitHub\NXT-voetbal\aanvaller.nxc"
11	146	251	#pragma macro 7
11	146	251		setout __constVal2, 2, __D0ZijLijn, 1, __constVal3, 8, __constVal0, 6, __constVal32, 7, __constVal0, 5, __constVal0, 10, __constVal96, 11, __constVal32, 12, __constVal32, 0, __constVal63
11	7513	274	#line 7513 "C:\Users\Mees\Documents\GitHub\NXT-voetbal\aanvaller.nxc"
11	145	274	#line 145 "C:\Users\Mees\Documents\GitHub\NXT-voetbal\aanvaller.nxc"
11	145	274	#line 145 "C:\Users\Mees\Documents\GitHub\NXT-voetbal\aanvaller.nxc"
11	146	274		subcall compaswaarde, __compaswaarde_return
11	145	276	#line 145 "C:\Users\Mees\Documents\GitHub\NXT-voetbal\aanvaller.nxc"
11	146	276		mov __D0ZijLijn, __D0compaswaarde
11	145	278	#line 145 "C:\Users\Mees\Documents\GitHub\NXT-voetbal\aanvaller.nxc"
11	146	278		abs __signed_stack_001ZijLijn, __D0ZijLijn
11	145	281	#line 145 "C:\Users\Mees\Documents\GitHub\NXT-voetbal\aanvaller.nxc"
11	145	281	#line 145 "C:\Users\Mees\Documents\GitHub\NXT-voetbal\aanvaller.nxc"
11	146	281		set __D0ZijLijn, 5
11	145	284	#line 145 "C:\Users\Mees\Documents\GitHub\NXT-voetbal\aanvaller.nxc"
11	146	284		cmp 0, __zfZijLijn, __signed_stack_001ZijLijn, __D0ZijLijn
11	145	288	#line 145 "C:\Users\Mees\Documents\GitHub\NXT-voetbal\aanvaller.nxc"
11	145	288	#line 145 "C:\Users\Mees\Documents\GitHub\NXT-voetbal\aanvaller.nxc"
11	146	288		not __D0ZijLijn, __zfZijLijn
11	146	291	#line 146 "C:\Users\Mees\Documents\GitHub\NXT-voetbal\aanvaller.nxc"
11	147	291		tst 5, __zfZijLijn, __D0ZijLijn
11	146	294	#line 146 "C:\Users\Mees\Documents\GitHub\NXT-voetbal\aanvaller.nxc"
11	147	294		brtst 4, __NXC_Label_809, __zfZijLijn
11	146	297	#line 146 "C:\Users\Mees\Documents\GitHub\NXT-voetbal\aanvaller.nxc"
11	146	297	#line 146 "C:\Users\Mees\Documents\GitHub\NXT-voetbal\aanvaller.nxc"
11	147	297		jmp __NXC_Label_808
11	146	299	#line 146 "C:\Users\Mees\Documents\GitHub\NXT-voetbal\aanvaller.nxc"
11	146	299	#line 146 "C:\Users\Mees\Documents\GitHub\NXT-voetbal\aanvaller.nxc"
11	147	299		set __Wait_7qG2_ms_7qG2_000_inline_ZijLijn, 500
11	146	302	#line 146 "C:\Users\Mees\Documents\GitHub\NXT-voetbal\aanvaller.nxc"
11	7921	302	#line 7921 "NXCDefs.h"
11	7922	302		wait 500
11	7921	304	#line 7921 "NXCDefs.h"
11	147	304	#line 147 "C:\Users\Mees\Documents\GitHub\NXT-voetbal\aanvaller.nxc"
11	147	304	#line 147 "C:\Users\Mees\Documents\GitHub\NXT-voetbal\aanvaller.nxc"
11	148	304		set __D0ZijLijn, -100
11	148	307	#line 148 "C:\Users\Mees\Documents\GitHub\NXT-voetbal\aanvaller.nxc"
11	149	307	#pragma macro 7
11	149	307		setout __OUT_AC, 2, __D0ZijLijn, 1, __constVal3, 8, __constVal0, 6, __constVal32, 7, __constVal0, 5, __constVal0, 10, __constVal96, 11, __constVal32, 12, __constVal32, 0, __constVal63
11	7562	330	#line 7562 "C:\Users\Mees\Documents\GitHub\NXT-voetbal\aanvaller.nxc"
11	148	330	#line 148 "C:\Users\Mees\Documents\GitHub\NXT-voetbal\aanvaller.nxc"
11	148	330	#line 148 "C:\Users\Mees\Documents\GitHub\NXT-voetbal\aanvaller.nxc"
11	149	330		set __Wait_7qG2_ms_7qG2_000_inline_ZijLijn, 500
11	148	333	#line 148 "C:\Users\Mees\Documents\GitHub\NXT-voetbal\aanvaller.nxc"
11	7921	333	#line 7921 "NXCDefs.h"
11	7922	333		wait 500
11	7921	335	#line 7921 "NXCDefs.h"
11	149	335	#line 149 "C:\Users\Mees\Documents\GitHub\NXT-voetbal\aanvaller.nxc"
11	150	335	#line 150 "C:\Users\Mees\Documents\GitHub\NXT-voetbal\aanvaller.nxc"
11	151	335	#pragma macro 7
11	151	335		setout __OUT_AC, 2, __constVal0, 1, __constVal3, 8, __constVal0, 6, __constVal32, 7, __constVal0, 5, __constVal0, 10, __constVal96, 11, __constVal32, 12, __constVal32, 0, __constVal63
11	7575	358	#line 7575 "C:\Users\Mees\Documents\GitHub\NXT-voetbal\aanvaller.nxc"
11	150	358	#line 150 "C:\Users\Mees\Documents\GitHub\NXT-voetbal\aanvaller.nxc"
11	155	358	#line 155 "C:\Users\Mees\Documents\GitHub\NXT-voetbal\aanvaller.nxc"
11	155	358	#line 155 "C:\Users\Mees\Documents\GitHub\NXT-voetbal\aanvaller.nxc"
11	155	358	#line 155 "C:\Users\Mees\Documents\GitHub\NXT-voetbal\aanvaller.nxc"
11	156	358		subret __ZijLijn_return
12	189	0	#line 189 "C:\Users\Mees\Documents\GitHub\NXT-voetbal\aanvaller.nxc"
12	190	0		subret ____initialize_global_data_return
#CLUMPS
Clump	Name	Offset	File
0	main	0	C:\Users\Mees\Documents\GitHub\NXT-voetbal\aanvaller.nxc
1	__RotateMotor1	549	NXTDefs.h
2	__ResetSensorSubroutine	703	NXTDefs.h
3	__ReadLSBytes1	716	NXTDefs.h
4	__ReadLSBytes2	800	NXTDefs.h
5	__ReadLSBytesVar	884	NXTDefs.h
6	HTEnhancedIRSeekerV2	983	C:\Users\Mees\Documents\GitHub\NXT-voetbal\aanvaller.nxc
7	compaswaarde	1408	C:\Users\Mees\Documents\GitHub\NXT-voetbal\aanvaller.nxc
8	kicken	1441	C:\Users\Mees\Documents\GitHub\NXT-voetbal\aanvaller.nxc
9	richten	1522	C:\Users\Mees\Documents\GitHub\NXT-voetbal\aanvaller.nxc
10	Sturen	1681	C:\Users\Mees\Documents\GitHub\NXT-voetbal\aanvaller.nxc
11	ZijLijn	1860	C:\Users\Mees\Documents\GitHub\NXT-voetbal\aanvaller.nxc
12	__initialize_global_data	2220	C:\Users\Mees\Documents\GitHub\NXT-voetbal\aanvaller.nxc
